(dp0
S'globals'
p1
(dp2
S'PS'
p3
I0
sS'SEQLN'
p4
I4
sS'PROP_DELAY'
p5
I3
sS'RLD_NEG'
p6
I4
sS'TRI_IDX'
p7
I0
sS'LSYNC'
p8
I40
sS'TRI_DWELL'
p9
I0
sS'DFBx2_XPT'
p10
I0
sS'NSAMP'
p11
I4
sS'TP'
p12
I0
sS'RLD_TRACK'
p13
I01
sS'SETT'
p14
I12
sS'TRI_STEP'
p15
I8
sS'DFBCLK_XPT'
p16
I5
sS'DFB_DELAY'
p17
I0
sS'RLD_POS'
p18
I64
sS'TRI_RANGE'
p19
I10
sS'ARL_SENSE'
p20
I1024
ss.