(dp0
S'CrateConfig'
p1
(dp2
S'AddressVector'
p3
(lp4
I1
asS'SlotVector'
p5
(lp6
I1
asS'ClassVector'
p7
(lp8
S'DFBCLK'
p9
assS'globals'
p10
(dp11
S'PS'
p12
I00
sS'SEQLN'
p13
I4
sS'PROP_DELAY'
p14
I3
sS'RLD_NEG'
p15
I4
sS'TRI_IDX'
p16
I00
sS'LSYNC'
p17
I40
sS'TRI_DWELL'
p18
I0
sS'DFBx2_XPT'
p19
I0
sS'NSAMP'
p20
I4
sS'TP'
p21
I0
sS'RLD_TRACK'
p22
I01
sS'SETT'
p23
I12
sS'TRI_STEP'
p24
I8
sS'DFBCLK_XPT'
p25
I5
sS'DFB_DELAY'
p26
I0
sS'RLD_POS'
p27
I64
sS'TRI_RANGE'
p28
I10
sS'ARL_SENSE'
p29
I1024
ssS'classParameters'
p30
(dp31
S'classParameters0'
p32
(dp33
S'CARDglobals'
p34
(dp35
S'LED'
p36
I00
sS'ST'
p37
I00
ssS'CHglobals'
p38
(dp39
S'enb'
p40
I01
ssS'dfbMasterVector'
p41
(dp42
S'I'
p43
I0
sS'd2a_B'
p44
I0
sS'd2a_A'
p45
I0
sS'P'
p46
I0
sS'a2d_lockpt'
p47
I0
sS'triA'
p48
I00
sS'triB'
p49
I00
sS'FBB'
p50
I00
sS'FBA'
p51
I00
sS'SM'
p52
I0
sS'ARL'
p53
I00
ssS'CARDphase'
p54
(dp55
S'coeff3'
p56
S'0'
p57
sS'coeff2'
p58
S'-2'
p59
sS'coeff1'
p60
S'0'
p61
sS'coeff0'
p62
S'-1'
p63
sS'coeff5'
p64
S'2'
p65
sS'coeff4'
p66
S'0'
p67
ssS'dfbAllStates'
p68
(dp69
S'state44'
p70
(dp71
g43
I0
sg44
I0
sg45
I0
sg46
I0
sg47
I0
sg48
I00
sg49
I00
sg50
I00
sg51
I00
sg52
I0
sg53
I00
ssS'state45'
p72
(dp73
g43
I0
sg44
I0
sg45
I0
sg46
I0
sg47
I0
sg48
I00
sg49
I00
sg50
I00
sg51
I00
sg52
I0
sg53
I00
ssS'state46'
p74
(dp75
g43
I0
sg44
I0
sg45
I0
sg46
I0
sg47
I0
sg48
I00
sg49
I00
sg50
I00
sg51
I00
sg52
I0
sg53
I00
ssS'state47'
p76
(dp77
g43
I0
sg44
I0
sg45
I0
sg46
I0
sg47
I0
sg48
I00
sg49
I00
sg50
I00
sg51
I00
sg52
I0
sg53
I00
ssS'state40'
p78
(dp79
g43
I0
sg44
I0
sg45
I0
sg46
I0
sg47
I0
sg48
I00
sg49
I00
sg50
I00
sg51
I00
sg52
I0
sg53
I00
ssS'state41'
p80
(dp81
g43
I0
sg44
I0
sg45
I0
sg46
I0
sg47
I0
sg48
I00
sg49
I00
sg50
I00
sg51
I00
sg52
I0
sg53
I00
ssS'state42'
p82
(dp83
g43
I0
sg44
I0
sg45
I0
sg46
I0
sg47
I0
sg48
I00
sg49
I00
sg50
I00
sg51
I00
sg52
I0
sg53
I00
ssS'state43'
p84
(dp85
g43
I0
sg44
I0
sg45
I0
sg46
I0
sg47
I0
sg48
I00
sg49
I00
sg50
I00
sg51
I00
sg52
I0
sg53
I00
ssS'state48'
p86
(dp87
g43
I0
sg44
I0
sg45
I0
sg46
I0
sg47
I0
sg48
I00
sg49
I00
sg50
I00
sg51
I00
sg52
I0
sg53
I00
ssS'state49'
p88
(dp89
g43
I0
sg44
I0
sg45
I0
sg46
I0
sg47
I0
sg48
I00
sg49
I00
sg50
I00
sg51
I00
sg52
I0
sg53
I00
ssS'state60'
p90
(dp91
g43
I0
sg44
I0
sg45
I0
sg46
I0
sg47
I0
sg48
I00
sg49
I00
sg50
I00
sg51
I00
sg52
I0
sg53
I00
ssS'state61'
p92
(dp93
g43
I0
sg44
I0
sg45
I0
sg46
I0
sg47
I0
sg48
I00
sg49
I00
sg50
I00
sg51
I00
sg52
I0
sg53
I00
ssS'state58'
p94
(dp95
g43
I0
sg44
I0
sg45
I0
sg46
I0
sg47
I0
sg48
I00
sg49
I00
sg50
I00
sg51
I00
sg52
I0
sg53
I00
ssS'state54'
p96
(dp97
g43
I0
sg44
I0
sg45
I0
sg46
I0
sg47
I0
sg48
I00
sg49
I00
sg50
I00
sg51
I00
sg52
I0
sg53
I00
ssS'state59'
p98
(dp99
g43
I0
sg44
I0
sg45
I0
sg46
I0
sg47
I0
sg48
I00
sg49
I00
sg50
I00
sg51
I00
sg52
I0
sg53
I00
ssS'state63'
p100
(dp101
g43
I0
sg44
I0
sg45
I0
sg46
I0
sg47
I0
sg48
I00
sg49
I00
sg50
I00
sg51
I00
sg52
I0
sg53
I00
ssS'state55'
p102
(dp103
g43
I0
sg44
I0
sg45
I0
sg46
I0
sg47
I0
sg48
I00
sg49
I00
sg50
I00
sg51
I00
sg52
I0
sg53
I00
ssS'state35'
p104
(dp105
g43
I0
sg44
I0
sg45
I0
sg46
I0
sg47
I0
sg48
I00
sg49
I00
sg50
I00
sg51
I00
sg52
I0
sg53
I00
ssS'state34'
p106
(dp107
g43
I0
sg44
I0
sg45
I0
sg46
I0
sg47
I0
sg48
I00
sg49
I00
sg50
I00
sg51
I00
sg52
I0
sg53
I00
ssS'state37'
p108
(dp109
g43
I0
sg44
I0
sg45
I0
sg46
I0
sg47
I0
sg48
I00
sg49
I00
sg50
I00
sg51
I00
sg52
I0
sg53
I00
ssS'state36'
p110
(dp111
g43
I0
sg44
I0
sg45
I0
sg46
I0
sg47
I0
sg48
I00
sg49
I00
sg50
I00
sg51
I00
sg52
I0
sg53
I00
ssS'state31'
p112
(dp113
g43
I0
sg44
I0
sg45
I0
sg46
I0
sg47
I0
sg48
I00
sg49
I00
sg50
I00
sg51
I00
sg52
I0
sg53
I00
ssS'state30'
p114
(dp115
g43
I0
sg44
I0
sg45
I0
sg46
I0
sg47
I0
sg48
I00
sg49
I00
sg50
I00
sg51
I00
sg52
I0
sg53
I00
ssS'state33'
p116
(dp117
g43
I0
sg44
I0
sg45
I0
sg46
I0
sg47
I0
sg48
I00
sg49
I00
sg50
I00
sg51
I00
sg52
I0
sg53
I00
ssS'state32'
p118
(dp119
g43
I0
sg44
I0
sg45
I0
sg46
I0
sg47
I0
sg48
I00
sg49
I00
sg50
I00
sg51
I00
sg52
I0
sg53
I00
ssS'state39'
p120
(dp121
g43
I0
sg44
I0
sg45
I0
sg46
I0
sg47
I0
sg48
I00
sg49
I00
sg50
I00
sg51
I00
sg52
I0
sg53
I00
ssS'state38'
p122
(dp123
g43
I0
sg44
I0
sg45
I0
sg46
I0
sg47
I0
sg48
I00
sg49
I00
sg50
I00
sg51
I00
sg52
I0
sg53
I00
ssS'state57'
p124
(dp125
g43
I0
sg44
I0
sg45
I0
sg46
I0
sg47
I0
sg48
I00
sg49
I00
sg50
I00
sg51
I00
sg52
I0
sg53
I00
ssS'state56'
p126
(dp127
g43
I0
sg44
I0
sg45
I0
sg46
I0
sg47
I0
sg48
I00
sg49
I00
sg50
I00
sg51
I00
sg52
I0
sg53
I00
ssS'state19'
p128
(dp129
g43
I0
sg44
I0
sg45
I0
sg46
I0
sg47
I0
sg48
I00
sg49
I00
sg50
I00
sg51
I00
sg52
I0
sg53
I00
ssS'state18'
p130
(dp131
g43
I0
sg44
I0
sg45
I0
sg46
I0
sg47
I0
sg48
I00
sg49
I00
sg50
I00
sg51
I00
sg52
I0
sg53
I00
ssS'state53'
p132
(dp133
g43
I0
sg44
I0
sg45
I0
sg46
I0
sg47
I0
sg48
I00
sg49
I00
sg50
I00
sg51
I00
sg52
I0
sg53
I00
ssS'state52'
p134
(dp135
g43
I0
sg44
I0
sg45
I0
sg46
I0
sg47
I0
sg48
I00
sg49
I00
sg50
I00
sg51
I00
sg52
I0
sg53
I00
ssS'state51'
p136
(dp137
g43
I0
sg44
I0
sg45
I0
sg46
I0
sg47
I0
sg48
I00
sg49
I00
sg50
I00
sg51
I00
sg52
I0
sg53
I00
ssS'state50'
p138
(dp139
g43
I0
sg44
I0
sg45
I0
sg46
I0
sg47
I0
sg48
I00
sg49
I00
sg50
I00
sg51
I00
sg52
I0
sg53
I00
ssS'state13'
p140
(dp141
g43
I0
sg44
I0
sg45
I0
sg46
I0
sg47
I0
sg48
I00
sg49
I00
sg50
I00
sg51
I00
sg52
I0
sg53
I00
ssS'state12'
p142
(dp143
g43
I0
sg44
I0
sg45
I0
sg46
I0
sg47
I0
sg48
I00
sg49
I00
sg50
I00
sg51
I00
sg52
I0
sg53
I00
ssS'state11'
p144
(dp145
g43
I0
sg44
I0
sg45
I0
sg46
I0
sg47
I0
sg48
I00
sg49
I00
sg50
I00
sg51
I00
sg52
I0
sg53
I00
ssS'state10'
p146
(dp147
g43
I0
sg44
I0
sg45
I0
sg46
I0
sg47
I0
sg48
I00
sg49
I00
sg50
I00
sg51
I00
sg52
I0
sg53
I00
ssS'state17'
p148
(dp149
g43
I0
sg44
I0
sg45
I0
sg46
I0
sg47
I0
sg48
I00
sg49
I00
sg50
I00
sg51
I00
sg52
I0
sg53
I00
ssS'state16'
p150
(dp151
g43
I0
sg44
I0
sg45
I0
sg46
I0
sg47
I0
sg48
I00
sg49
I00
sg50
I00
sg51
I00
sg52
I0
sg53
I00
ssS'state15'
p152
(dp153
g43
I0
sg44
I0
sg45
I0
sg46
I0
sg47
I0
sg48
I00
sg49
I00
sg50
I00
sg51
I00
sg52
I0
sg53
I00
ssS'state14'
p154
(dp155
g43
I0
sg44
I0
sg45
I0
sg46
I0
sg47
I0
sg48
I00
sg49
I00
sg50
I00
sg51
I00
sg52
I0
sg53
I00
ssS'state3'
p156
(dp157
g43
I0
sg44
I0
sg45
I0
sg46
I0
sg47
I0
sg48
I00
sg49
I00
sg50
I00
sg51
I00
sg52
I0
sg53
I00
ssS'state2'
p158
(dp159
g43
I0
sg44
I0
sg45
I0
sg46
I0
sg47
I0
sg48
I00
sg49
I00
sg50
I00
sg51
I00
sg52
I0
sg53
I00
ssS'state1'
p160
(dp161
g43
I0
sg44
I0
sg45
I0
sg46
I0
sg47
I0
sg48
I00
sg49
I00
sg50
I00
sg51
I00
sg52
I0
sg53
I00
ssS'state0'
p162
(dp163
g43
I0
sg44
I0
sg45
I0
sg46
I0
sg47
I0
sg48
I00
sg49
I00
sg50
I00
sg51
I00
sg52
I0
sg53
I00
ssS'state7'
p164
(dp165
g43
I0
sg44
I0
sg45
I0
sg46
I0
sg47
I0
sg48
I00
sg49
I00
sg50
I00
sg51
I00
sg52
I0
sg53
I00
ssS'state6'
p166
(dp167
g43
I0
sg44
I0
sg45
I0
sg46
I0
sg47
I0
sg48
I00
sg49
I00
sg50
I00
sg51
I00
sg52
I0
sg53
I00
ssS'state5'
p168
(dp169
g43
I0
sg44
I0
sg45
I0
sg46
I0
sg47
I0
sg48
I00
sg49
I00
sg50
I00
sg51
I00
sg52
I0
sg53
I00
ssS'state4'
p170
(dp171
g43
I0
sg44
I0
sg45
I0
sg46
I0
sg47
I0
sg48
I00
sg49
I00
sg50
I00
sg51
I00
sg52
I0
sg53
I00
ssS'state9'
p172
(dp173
g43
I0
sg44
I0
sg45
I0
sg46
I0
sg47
I0
sg48
I00
sg49
I00
sg50
I00
sg51
I00
sg52
I0
sg53
I00
ssS'state8'
p174
(dp175
g43
I0
sg44
I0
sg45
I0
sg46
I0
sg47
I0
sg48
I00
sg49
I00
sg50
I00
sg51
I00
sg52
I0
sg53
I00
ssS'state62'
p176
(dp177
g43
I0
sg44
I0
sg45
I0
sg46
I0
sg47
I0
sg48
I00
sg49
I00
sg50
I00
sg51
I00
sg52
I0
sg53
I00
ssS'state22'
p178
(dp179
g43
I0
sg44
I0
sg45
I0
sg46
I0
sg47
I0
sg48
I00
sg49
I00
sg50
I00
sg51
I00
sg52
I0
sg53
I00
ssS'state23'
p180
(dp181
g43
I0
sg44
I0
sg45
I0
sg46
I0
sg47
I0
sg48
I00
sg49
I00
sg50
I00
sg51
I00
sg52
I0
sg53
I00
ssS'state20'
p182
(dp183
g43
I0
sg44
I0
sg45
I0
sg46
I0
sg47
I0
sg48
I00
sg49
I00
sg50
I00
sg51
I00
sg52
I0
sg53
I00
ssS'state21'
p184
(dp185
g43
I0
sg44
I0
sg45
I0
sg46
I0
sg47
I0
sg48
I00
sg49
I00
sg50
I00
sg51
I00
sg52
I0
sg53
I00
ssS'state26'
p186
(dp187
g43
I0
sg44
I0
sg45
I0
sg46
I0
sg47
I0
sg48
I00
sg49
I00
sg50
I00
sg51
I00
sg52
I0
sg53
I00
ssS'state27'
p188
(dp189
g43
I0
sg44
I0
sg45
I0
sg46
I0
sg47
I0
sg48
I00
sg49
I00
sg50
I00
sg51
I00
sg52
I0
sg53
I00
ssS'state24'
p190
(dp191
g43
I0
sg44
I0
sg45
I0
sg46
I0
sg47
I0
sg48
I00
sg49
I00
sg50
I00
sg51
I00
sg52
I0
sg53
I00
ssS'state25'
p192
(dp193
g43
I0
sg44
I0
sg45
I0
sg46
I0
sg47
I0
sg48
I00
sg49
I00
sg50
I00
sg51
I00
sg52
I0
sg53
I00
ssS'state28'
p194
(dp195
g43
I0
sg44
I0
sg45
I0
sg46
I0
sg47
I0
sg48
I00
sg49
I00
sg50
I00
sg51
I00
sg52
I0
sg53
I00
ssS'state29'
p196
(dp197
g43
I0
sg44
I0
sg45
I0
sg46
I0
sg47
I0
sg48
I00
sg49
I00
sg50
I00
sg51
I00
sg52
I0
sg53
I00
sssss.