(dp0
S'globals'
p1
(dp2
S'PS'
p3
I00
sS'SEQLN'
p4
I4
sS'PROP_DELAY'
p5
I3
sS'RLD_NEG'
p6
I4
sS'TRI_IDX'
p7
I00
sS'LSYNC'
p8
I40
sS'TRI_DWELL'
p9
I0
sS'DFBx2_XPT'
p10
I0
sS'NSAMP'
p11
I4
sS'TP'
p12
I0
sS'RLD_TRACK'
p13
I01
sS'SETT'
p14
I12
sS'TRI_STEP'
p15
I8
sS'DFBCLK_XPT'
p16
I5
sS'DFB_DELAY'
p17
I0
sS'RLD_POS'
p18
I64
sS'TRI_RANGE'
p19
I10
sS'ARL_SENSE'
p20
I1024
ssS'classParameters'
p21
(dp22
S'classParameters0'
p23
(dp24
S'dfbMasterVector'
p25
(dp26
S'I'
p27
I0
sS'd2a_B'
p28
I0
sS'd2a_A'
p29
I0
sS'P'
p30
I0
sS'a2d_lockpt'
p31
I0
sS'triA'
p32
I01
sS'triB'
p33
I00
sS'FBB'
p34
I00
sS'FBA'
p35
I00
sS'SM'
p36
I0
sS'ARL'
p37
I00
sssS'classParameters1'
p38
(dp39
S'dfbMasterVector1'
p40
(dp41
g27
I0
sg28
I0
sg29
I0
sg30
I0
sg31
I0
sg32
I00
sg33
I01
sg34
I00
sg35
I00
sg36
I0
sg37
I00
ssS'dfbMasterVector2'
p42
(dp43
g27
I0
sg28
I0
sg29
I0
sg30
I0
sg31
I0
sg32
I00
sg33
I00
sg34
I00
sg35
I01
sg36
I0
sg37
I00
ssss.