(dp0
S'globals'
p1
(dp2
S'PS'
p3
I00
sS'SEQLN'
p4
I4
sS'PROP_DELAY'
p5
I3
sS'RLD_NEG'
p6
I4
sS'TRI_IDX'
p7
I00
sS'LSYNC'
p8
I40
sS'TRI_DWELL'
p9
I0
sS'DFBx2_XPT'
p10
I0
sS'NSAMP'
p11
I4
sS'TP'
p12
I0
sS'RLD_TRACK'
p13
I01
sS'SETT'
p14
I12
sS'TRI_STEP'
p15
I8
sS'DFBCLK_XPT'
p16
I5
sS'DFB_DELAY'
p17
I0
sS'RLD_POS'
p18
I64
sS'TRI_RANGE'
p19
I10
sS'ARL_SENSE'
p20
I1024
ssS'classParameters'
p21
(dp22
S'classParameters0'
p23
(dp24
S'CARDglobals'
p25
(dp26
S'LED'
p27
I00
sS'ST'
p28
I00
ssS'CHglobals'
p29
(dp30
S'enb'
p31
I01
ssS'dfbMasterVector'
p32
(dp33
S'I'
p34
I0
sS'd2a_B'
p35
I0
sS'd2a_A'
p36
I0
sS'P'
p37
I0
sS'a2d_lockpt'
p38
I0
sS'triA'
p39
I00
sS'triB'
p40
I00
sS'FBB'
p41
I00
sS'FBA'
p42
I00
sS'SM'
p43
I0
sS'ARL'
p44
I00
ssS'dfbAllStates'
p45
(dp46
S'state44'
p47
(dp48
g34
I0
sg35
I0
sg36
I0
sg37
I0
sg38
I0
sg39
I00
sg40
I00
sg41
I00
sg42
I00
sg43
I0
sg44
I00
ssS'state45'
p49
(dp50
g34
I0
sg35
I0
sg36
I0
sg37
I0
sg38
I0
sg39
I00
sg40
I00
sg41
I00
sg42
I00
sg43
I0
sg44
I00
ssS'state46'
p51
(dp52
g34
I0
sg35
I0
sg36
I0
sg37
I0
sg38
I0
sg39
I00
sg40
I00
sg41
I00
sg42
I00
sg43
I0
sg44
I00
ssS'state47'
p53
(dp54
g34
I0
sg35
I0
sg36
I0
sg37
I0
sg38
I0
sg39
I00
sg40
I00
sg41
I00
sg42
I00
sg43
I0
sg44
I00
ssS'state40'
p55
(dp56
g34
I0
sg35
I0
sg36
I0
sg37
I0
sg38
I0
sg39
I00
sg40
I00
sg41
I00
sg42
I00
sg43
I0
sg44
I00
ssS'state41'
p57
(dp58
g34
I0
sg35
I0
sg36
I0
sg37
I0
sg38
I0
sg39
I00
sg40
I00
sg41
I00
sg42
I00
sg43
I0
sg44
I00
ssS'state42'
p59
(dp60
g34
I0
sg35
I0
sg36
I0
sg37
I0
sg38
I0
sg39
I00
sg40
I00
sg41
I00
sg42
I00
sg43
I0
sg44
I00
ssS'state43'
p61
(dp62
g34
I0
sg35
I0
sg36
I0
sg37
I0
sg38
I0
sg39
I00
sg40
I00
sg41
I00
sg42
I00
sg43
I0
sg44
I00
ssS'state48'
p63
(dp64
g34
I0
sg35
I0
sg36
I0
sg37
I0
sg38
I0
sg39
I00
sg40
I00
sg41
I00
sg42
I00
sg43
I0
sg44
I00
ssS'state49'
p65
(dp66
g34
I0
sg35
I0
sg36
I0
sg37
I0
sg38
I0
sg39
I00
sg40
I00
sg41
I00
sg42
I00
sg43
I0
sg44
I00
ssS'state60'
p67
(dp68
g34
I0
sg35
I0
sg36
I0
sg37
I0
sg38
I0
sg39
I00
sg40
I00
sg41
I00
sg42
I00
sg43
I0
sg44
I00
ssS'state61'
p69
(dp70
g34
I0
sg35
I0
sg36
I0
sg37
I0
sg38
I0
sg39
I00
sg40
I00
sg41
I00
sg42
I00
sg43
I0
sg44
I00
ssS'state58'
p71
(dp72
g34
I0
sg35
I0
sg36
I0
sg37
I0
sg38
I0
sg39
I00
sg40
I00
sg41
I00
sg42
I00
sg43
I0
sg44
I00
ssS'state54'
p73
(dp74
g34
I0
sg35
I0
sg36
I0
sg37
I0
sg38
I0
sg39
I00
sg40
I00
sg41
I00
sg42
I00
sg43
I0
sg44
I00
ssS'state59'
p75
(dp76
g34
I0
sg35
I0
sg36
I0
sg37
I0
sg38
I0
sg39
I00
sg40
I00
sg41
I00
sg42
I00
sg43
I0
sg44
I00
ssS'state63'
p77
(dp78
g34
I0
sg35
I0
sg36
I0
sg37
I0
sg38
I0
sg39
I00
sg40
I00
sg41
I00
sg42
I00
sg43
I0
sg44
I00
ssS'state55'
p79
(dp80
g34
I0
sg35
I0
sg36
I0
sg37
I0
sg38
I0
sg39
I00
sg40
I00
sg41
I00
sg42
I00
sg43
I0
sg44
I00
ssS'state35'
p81
(dp82
g34
I0
sg35
I0
sg36
I0
sg37
I0
sg38
I0
sg39
I00
sg40
I00
sg41
I00
sg42
I00
sg43
I0
sg44
I00
ssS'state34'
p83
(dp84
g34
I0
sg35
I0
sg36
I0
sg37
I0
sg38
I0
sg39
I00
sg40
I00
sg41
I00
sg42
I00
sg43
I0
sg44
I00
ssS'state37'
p85
(dp86
g34
I0
sg35
I0
sg36
I0
sg37
I0
sg38
I0
sg39
I00
sg40
I00
sg41
I00
sg42
I00
sg43
I0
sg44
I00
ssS'state36'
p87
(dp88
g34
I0
sg35
I0
sg36
I0
sg37
I0
sg38
I0
sg39
I00
sg40
I00
sg41
I00
sg42
I00
sg43
I0
sg44
I00
ssS'state31'
p89
(dp90
g34
I0
sg35
I0
sg36
I0
sg37
I0
sg38
I0
sg39
I00
sg40
I00
sg41
I00
sg42
I00
sg43
I0
sg44
I00
ssS'state30'
p91
(dp92
g34
I0
sg35
I0
sg36
I0
sg37
I0
sg38
I0
sg39
I00
sg40
I00
sg41
I00
sg42
I00
sg43
I0
sg44
I00
ssS'state33'
p93
(dp94
g34
I0
sg35
I0
sg36
I0
sg37
I0
sg38
I0
sg39
I00
sg40
I00
sg41
I00
sg42
I00
sg43
I0
sg44
I00
ssS'state32'
p95
(dp96
g34
I0
sg35
I0
sg36
I0
sg37
I0
sg38
I0
sg39
I00
sg40
I00
sg41
I00
sg42
I00
sg43
I0
sg44
I00
ssS'state39'
p97
(dp98
g34
I0
sg35
I0
sg36
I0
sg37
I0
sg38
I0
sg39
I00
sg40
I00
sg41
I00
sg42
I00
sg43
I0
sg44
I00
ssS'state38'
p99
(dp100
g34
I0
sg35
I0
sg36
I0
sg37
I0
sg38
I0
sg39
I00
sg40
I00
sg41
I00
sg42
I00
sg43
I0
sg44
I00
ssS'state57'
p101
(dp102
g34
I0
sg35
I0
sg36
I0
sg37
I0
sg38
I0
sg39
I00
sg40
I00
sg41
I00
sg42
I00
sg43
I0
sg44
I00
ssS'state56'
p103
(dp104
g34
I0
sg35
I0
sg36
I0
sg37
I0
sg38
I0
sg39
I00
sg40
I00
sg41
I00
sg42
I00
sg43
I0
sg44
I00
ssS'state19'
p105
(dp106
g34
I0
sg35
I0
sg36
I0
sg37
I0
sg38
I0
sg39
I00
sg40
I00
sg41
I00
sg42
I00
sg43
I0
sg44
I00
ssS'state18'
p107
(dp108
g34
I0
sg35
I0
sg36
I0
sg37
I0
sg38
I0
sg39
I00
sg40
I00
sg41
I00
sg42
I00
sg43
I0
sg44
I00
ssS'state53'
p109
(dp110
g34
I0
sg35
I0
sg36
I0
sg37
I0
sg38
I0
sg39
I00
sg40
I00
sg41
I00
sg42
I00
sg43
I0
sg44
I00
ssS'state52'
p111
(dp112
g34
I0
sg35
I0
sg36
I0
sg37
I0
sg38
I0
sg39
I00
sg40
I00
sg41
I00
sg42
I00
sg43
I0
sg44
I00
ssS'state51'
p113
(dp114
g34
I0
sg35
I0
sg36
I0
sg37
I0
sg38
I0
sg39
I00
sg40
I00
sg41
I00
sg42
I00
sg43
I0
sg44
I00
ssS'state50'
p115
(dp116
g34
I0
sg35
I0
sg36
I0
sg37
I0
sg38
I0
sg39
I00
sg40
I00
sg41
I00
sg42
I00
sg43
I0
sg44
I00
ssS'state13'
p117
(dp118
g34
I0
sg35
I0
sg36
I0
sg37
I0
sg38
I0
sg39
I00
sg40
I00
sg41
I00
sg42
I00
sg43
I0
sg44
I00
ssS'state12'
p119
(dp120
g34
I0
sg35
I0
sg36
I0
sg37
I0
sg38
I0
sg39
I00
sg40
I00
sg41
I00
sg42
I00
sg43
I0
sg44
I00
ssS'state11'
p121
(dp122
g34
I0
sg35
I0
sg36
I0
sg37
I0
sg38
I0
sg39
I00
sg40
I00
sg41
I00
sg42
I00
sg43
I0
sg44
I00
ssS'state10'
p123
(dp124
g34
I0
sg35
I0
sg36
I0
sg37
I0
sg38
I0
sg39
I00
sg40
I00
sg41
I00
sg42
I00
sg43
I0
sg44
I00
ssS'state17'
p125
(dp126
g34
I0
sg35
I0
sg36
I0
sg37
I0
sg38
I0
sg39
I00
sg40
I00
sg41
I00
sg42
I00
sg43
I0
sg44
I00
ssS'state16'
p127
(dp128
g34
I0
sg35
I0
sg36
I0
sg37
I0
sg38
I0
sg39
I00
sg40
I00
sg41
I00
sg42
I00
sg43
I0
sg44
I00
ssS'state15'
p129
(dp130
g34
I0
sg35
I0
sg36
I0
sg37
I0
sg38
I0
sg39
I00
sg40
I00
sg41
I00
sg42
I00
sg43
I0
sg44
I00
ssS'state14'
p131
(dp132
g34
I0
sg35
I0
sg36
I0
sg37
I0
sg38
I0
sg39
I00
sg40
I00
sg41
I00
sg42
I00
sg43
I0
sg44
I00
ssS'state3'
p133
(dp134
g34
I0
sg35
I0
sg36
I0
sg37
I0
sg38
I4
sg39
I00
sg40
I00
sg41
I00
sg42
I00
sg43
I0
sg44
I00
ssS'state2'
p135
(dp136
g34
I0
sg35
I0
sg36
I0
sg37
I0
sg38
I3
sg39
I00
sg40
I00
sg41
I00
sg42
I00
sg43
I0
sg44
I00
ssS'state1'
p137
(dp138
g34
I0
sg35
I0
sg36
I0
sg37
I0
sg38
I2
sg39
I00
sg40
I00
sg41
I00
sg42
I00
sg43
I0
sg44
I00
ssS'state0'
p139
(dp140
g34
I0
sg35
I0
sg36
I0
sg37
I0
sg38
I1
sg39
I00
sg40
I00
sg41
I00
sg42
I00
sg43
I0
sg44
I00
ssS'state7'
p141
(dp142
g34
I0
sg35
I0
sg36
I0
sg37
I0
sg38
I0
sg39
I00
sg40
I00
sg41
I00
sg42
I00
sg43
I0
sg44
I00
ssS'state6'
p143
(dp144
g34
I0
sg35
I0
sg36
I0
sg37
I0
sg38
I0
sg39
I00
sg40
I00
sg41
I00
sg42
I00
sg43
I0
sg44
I00
ssS'state5'
p145
(dp146
g34
I0
sg35
I0
sg36
I0
sg37
I0
sg38
I0
sg39
I00
sg40
I00
sg41
I00
sg42
I00
sg43
I0
sg44
I00
ssS'state4'
p147
(dp148
g34
I0
sg35
I0
sg36
I0
sg37
I0
sg38
I0
sg39
I00
sg40
I00
sg41
I00
sg42
I00
sg43
I0
sg44
I00
ssS'state9'
p149
(dp150
g34
I0
sg35
I0
sg36
I0
sg37
I0
sg38
I0
sg39
I00
sg40
I00
sg41
I00
sg42
I00
sg43
I0
sg44
I00
ssS'state8'
p151
(dp152
g34
I0
sg35
I0
sg36
I0
sg37
I0
sg38
I0
sg39
I00
sg40
I00
sg41
I00
sg42
I00
sg43
I0
sg44
I00
ssS'state62'
p153
(dp154
g34
I0
sg35
I0
sg36
I0
sg37
I0
sg38
I0
sg39
I00
sg40
I00
sg41
I00
sg42
I00
sg43
I0
sg44
I00
ssS'state22'
p155
(dp156
g34
I0
sg35
I0
sg36
I0
sg37
I0
sg38
I0
sg39
I00
sg40
I00
sg41
I00
sg42
I00
sg43
I0
sg44
I00
ssS'state23'
p157
(dp158
g34
I0
sg35
I0
sg36
I0
sg37
I0
sg38
I0
sg39
I00
sg40
I00
sg41
I00
sg42
I00
sg43
I0
sg44
I00
ssS'state20'
p159
(dp160
g34
I0
sg35
I0
sg36
I0
sg37
I0
sg38
I0
sg39
I00
sg40
I00
sg41
I00
sg42
I00
sg43
I0
sg44
I00
ssS'state21'
p161
(dp162
g34
I0
sg35
I0
sg36
I0
sg37
I0
sg38
I0
sg39
I00
sg40
I00
sg41
I00
sg42
I00
sg43
I0
sg44
I00
ssS'state26'
p163
(dp164
g34
I0
sg35
I0
sg36
I0
sg37
I0
sg38
I0
sg39
I00
sg40
I00
sg41
I00
sg42
I00
sg43
I0
sg44
I00
ssS'state27'
p165
(dp166
g34
I0
sg35
I0
sg36
I0
sg37
I0
sg38
I0
sg39
I00
sg40
I00
sg41
I00
sg42
I00
sg43
I0
sg44
I00
ssS'state24'
p167
(dp168
g34
I0
sg35
I0
sg36
I0
sg37
I0
sg38
I0
sg39
I00
sg40
I00
sg41
I00
sg42
I00
sg43
I0
sg44
I00
ssS'state25'
p169
(dp170
g34
I0
sg35
I0
sg36
I0
sg37
I0
sg38
I0
sg39
I00
sg40
I00
sg41
I00
sg42
I00
sg43
I0
sg44
I00
ssS'state28'
p171
(dp172
g34
I0
sg35
I0
sg36
I0
sg37
I0
sg38
I0
sg39
I00
sg40
I00
sg41
I00
sg42
I00
sg43
I0
sg44
I00
ssS'state29'
p173
(dp174
g34
I0
sg35
I0
sg36
I0
sg37
I0
sg38
I0
sg39
I00
sg40
I00
sg41
I00
sg42
I00
sg43
I0
sg44
I00
ssssS'classParameters1'
p175
(dp176
g25
(dp177
g27
I00
sg28
I00
ssS'dfbMasterVector1'
p178
(dp179
g34
I0
sg35
I0
sg36
I0
sg37
I0
sg38
I0
sg39
I00
sg40
I00
sg41
I00
sg42
I00
sg43
I0
sg44
I00
ssS'dfbMasterVector2'
p180
(dp181
g34
I0
sg35
I0
sg36
I0
sg37
I0
sg38
I0
sg39
I00
sg40
I00
sg41
I00
sg42
I00
sg43
I0
sg44
I00
ssS'dfbAllStates1'
p182
(dp183
S'state44'
p184
(dp185
g34
I0
sg35
I0
sg36
I0
sg37
I0
sg38
I0
sg39
I00
sg40
I00
sg41
I00
sg42
I00
sg43
I0
sg44
I00
ssS'state45'
p186
(dp187
g34
I0
sg35
I0
sg36
I0
sg37
I0
sg38
I0
sg39
I00
sg40
I00
sg41
I00
sg42
I00
sg43
I0
sg44
I00
ssS'state46'
p188
(dp189
g34
I0
sg35
I0
sg36
I0
sg37
I0
sg38
I0
sg39
I00
sg40
I00
sg41
I00
sg42
I00
sg43
I0
sg44
I00
ssS'state47'
p190
(dp191
g34
I0
sg35
I0
sg36
I0
sg37
I0
sg38
I0
sg39
I00
sg40
I00
sg41
I00
sg42
I00
sg43
I0
sg44
I00
ssS'state40'
p192
(dp193
g34
I0
sg35
I0
sg36
I0
sg37
I0
sg38
I0
sg39
I00
sg40
I00
sg41
I00
sg42
I00
sg43
I0
sg44
I00
ssS'state41'
p194
(dp195
g34
I0
sg35
I0
sg36
I0
sg37
I0
sg38
I0
sg39
I00
sg40
I00
sg41
I00
sg42
I00
sg43
I0
sg44
I00
ssS'state42'
p196
(dp197
g34
I0
sg35
I0
sg36
I0
sg37
I0
sg38
I0
sg39
I00
sg40
I00
sg41
I00
sg42
I00
sg43
I0
sg44
I00
ssS'state43'
p198
(dp199
g34
I0
sg35
I0
sg36
I0
sg37
I0
sg38
I0
sg39
I00
sg40
I00
sg41
I00
sg42
I00
sg43
I0
sg44
I00
ssS'state48'
p200
(dp201
g34
I0
sg35
I0
sg36
I0
sg37
I0
sg38
I0
sg39
I00
sg40
I00
sg41
I00
sg42
I00
sg43
I0
sg44
I00
ssS'state49'
p202
(dp203
g34
I0
sg35
I0
sg36
I0
sg37
I0
sg38
I0
sg39
I00
sg40
I00
sg41
I00
sg42
I00
sg43
I0
sg44
I00
ssS'state60'
p204
(dp205
g34
I0
sg35
I0
sg36
I0
sg37
I0
sg38
I0
sg39
I00
sg40
I00
sg41
I00
sg42
I00
sg43
I0
sg44
I00
ssS'state61'
p206
(dp207
g34
I0
sg35
I0
sg36
I0
sg37
I0
sg38
I0
sg39
I00
sg40
I00
sg41
I00
sg42
I00
sg43
I0
sg44
I00
ssS'state58'
p208
(dp209
g34
I0
sg35
I0
sg36
I0
sg37
I0
sg38
I0
sg39
I00
sg40
I00
sg41
I00
sg42
I00
sg43
I0
sg44
I00
ssS'state54'
p210
(dp211
g34
I0
sg35
I0
sg36
I0
sg37
I0
sg38
I0
sg39
I00
sg40
I00
sg41
I00
sg42
I00
sg43
I0
sg44
I00
ssS'state59'
p212
(dp213
g34
I0
sg35
I0
sg36
I0
sg37
I0
sg38
I0
sg39
I00
sg40
I00
sg41
I00
sg42
I00
sg43
I0
sg44
I00
ssS'state63'
p214
(dp215
g34
I0
sg35
I0
sg36
I0
sg37
I0
sg38
I0
sg39
I00
sg40
I00
sg41
I00
sg42
I00
sg43
I0
sg44
I00
ssS'state55'
p216
(dp217
g34
I0
sg35
I0
sg36
I0
sg37
I0
sg38
I0
sg39
I00
sg40
I00
sg41
I00
sg42
I00
sg43
I0
sg44
I00
ssS'state35'
p218
(dp219
g34
I0
sg35
I0
sg36
I0
sg37
I0
sg38
I0
sg39
I00
sg40
I00
sg41
I00
sg42
I00
sg43
I0
sg44
I00
ssS'state34'
p220
(dp221
g34
I0
sg35
I0
sg36
I0
sg37
I0
sg38
I0
sg39
I00
sg40
I00
sg41
I00
sg42
I00
sg43
I0
sg44
I00
ssS'state37'
p222
(dp223
g34
I0
sg35
I0
sg36
I0
sg37
I0
sg38
I0
sg39
I00
sg40
I00
sg41
I00
sg42
I00
sg43
I0
sg44
I00
ssS'state36'
p224
(dp225
g34
I0
sg35
I0
sg36
I0
sg37
I0
sg38
I0
sg39
I00
sg40
I00
sg41
I00
sg42
I00
sg43
I0
sg44
I00
ssS'state31'
p226
(dp227
g34
I0
sg35
I0
sg36
I0
sg37
I0
sg38
I0
sg39
I00
sg40
I00
sg41
I00
sg42
I00
sg43
I0
sg44
I00
ssS'state30'
p228
(dp229
g34
I0
sg35
I0
sg36
I0
sg37
I0
sg38
I0
sg39
I00
sg40
I00
sg41
I00
sg42
I00
sg43
I0
sg44
I00
ssS'state33'
p230
(dp231
g34
I0
sg35
I0
sg36
I0
sg37
I0
sg38
I0
sg39
I00
sg40
I00
sg41
I00
sg42
I00
sg43
I0
sg44
I00
ssS'state32'
p232
(dp233
g34
I0
sg35
I0
sg36
I0
sg37
I0
sg38
I0
sg39
I00
sg40
I00
sg41
I00
sg42
I00
sg43
I0
sg44
I00
ssS'state39'
p234
(dp235
g34
I0
sg35
I0
sg36
I0
sg37
I0
sg38
I0
sg39
I00
sg40
I00
sg41
I00
sg42
I00
sg43
I0
sg44
I00
ssS'state38'
p236
(dp237
g34
I0
sg35
I0
sg36
I0
sg37
I0
sg38
I0
sg39
I00
sg40
I00
sg41
I00
sg42
I00
sg43
I0
sg44
I00
ssS'state57'
p238
(dp239
g34
I0
sg35
I0
sg36
I0
sg37
I0
sg38
I0
sg39
I00
sg40
I00
sg41
I00
sg42
I00
sg43
I0
sg44
I00
ssS'state56'
p240
(dp241
g34
I0
sg35
I0
sg36
I0
sg37
I0
sg38
I0
sg39
I00
sg40
I00
sg41
I00
sg42
I00
sg43
I0
sg44
I00
ssS'state19'
p242
(dp243
g34
I0
sg35
I0
sg36
I0
sg37
I0
sg38
I0
sg39
I00
sg40
I00
sg41
I00
sg42
I00
sg43
I0
sg44
I00
ssS'state18'
p244
(dp245
g34
I0
sg35
I0
sg36
I0
sg37
I0
sg38
I0
sg39
I00
sg40
I00
sg41
I00
sg42
I00
sg43
I0
sg44
I00
ssS'state53'
p246
(dp247
g34
I0
sg35
I0
sg36
I0
sg37
I0
sg38
I0
sg39
I00
sg40
I00
sg41
I00
sg42
I00
sg43
I0
sg44
I00
ssS'state52'
p248
(dp249
g34
I0
sg35
I0
sg36
I0
sg37
I0
sg38
I0
sg39
I00
sg40
I00
sg41
I00
sg42
I00
sg43
I0
sg44
I00
ssS'state51'
p250
(dp251
g34
I0
sg35
I0
sg36
I0
sg37
I0
sg38
I0
sg39
I00
sg40
I00
sg41
I00
sg42
I00
sg43
I0
sg44
I00
ssS'state50'
p252
(dp253
g34
I0
sg35
I0
sg36
I0
sg37
I0
sg38
I0
sg39
I00
sg40
I00
sg41
I00
sg42
I00
sg43
I0
sg44
I00
ssS'state13'
p254
(dp255
g34
I0
sg35
I0
sg36
I0
sg37
I0
sg38
I0
sg39
I00
sg40
I00
sg41
I00
sg42
I00
sg43
I0
sg44
I00
ssS'state12'
p256
(dp257
g34
I0
sg35
I0
sg36
I0
sg37
I0
sg38
I0
sg39
I00
sg40
I00
sg41
I00
sg42
I00
sg43
I0
sg44
I00
ssS'state11'
p258
(dp259
g34
I0
sg35
I0
sg36
I0
sg37
I0
sg38
I0
sg39
I00
sg40
I00
sg41
I00
sg42
I00
sg43
I0
sg44
I00
ssS'state10'
p260
(dp261
g34
I0
sg35
I0
sg36
I0
sg37
I0
sg38
I0
sg39
I00
sg40
I00
sg41
I00
sg42
I00
sg43
I0
sg44
I00
ssS'state17'
p262
(dp263
g34
I0
sg35
I0
sg36
I0
sg37
I0
sg38
I0
sg39
I00
sg40
I00
sg41
I00
sg42
I00
sg43
I0
sg44
I00
ssS'state16'
p264
(dp265
g34
I0
sg35
I0
sg36
I0
sg37
I0
sg38
I0
sg39
I00
sg40
I00
sg41
I00
sg42
I00
sg43
I0
sg44
I00
ssS'state15'
p266
(dp267
g34
I0
sg35
I0
sg36
I0
sg37
I0
sg38
I0
sg39
I00
sg40
I00
sg41
I00
sg42
I00
sg43
I0
sg44
I00
ssS'state14'
p268
(dp269
g34
I0
sg35
I0
sg36
I0
sg37
I0
sg38
I0
sg39
I00
sg40
I00
sg41
I00
sg42
I00
sg43
I0
sg44
I00
ssS'state3'
p270
(dp271
g34
I0
sg35
I0
sg36
I4
sg37
I0
sg38
I0
sg39
I00
sg40
I00
sg41
I00
sg42
I00
sg43
I0
sg44
I00
ssS'state2'
p272
(dp273
g34
I0
sg35
I0
sg36
I3
sg37
I0
sg38
I0
sg39
I00
sg40
I00
sg41
I00
sg42
I00
sg43
I0
sg44
I00
ssS'state1'
p274
(dp275
g34
I0
sg35
I0
sg36
I2
sg37
I0
sg38
I0
sg39
I00
sg40
I00
sg41
I00
sg42
I00
sg43
I0
sg44
I00
ssS'state0'
p276
(dp277
g34
I0
sg35
I0
sg36
I1
sg37
I0
sg38
I0
sg39
I00
sg40
I00
sg41
I00
sg42
I00
sg43
I0
sg44
I00
ssS'state7'
p278
(dp279
g34
I0
sg35
I0
sg36
I0
sg37
I0
sg38
I0
sg39
I00
sg40
I00
sg41
I00
sg42
I00
sg43
I0
sg44
I00
ssS'state6'
p280
(dp281
g34
I0
sg35
I0
sg36
I0
sg37
I0
sg38
I0
sg39
I00
sg40
I00
sg41
I00
sg42
I00
sg43
I0
sg44
I00
ssS'state5'
p282
(dp283
g34
I0
sg35
I0
sg36
I0
sg37
I0
sg38
I0
sg39
I00
sg40
I00
sg41
I00
sg42
I00
sg43
I0
sg44
I00
ssS'state4'
p284
(dp285
g34
I0
sg35
I0
sg36
I0
sg37
I0
sg38
I0
sg39
I00
sg40
I00
sg41
I00
sg42
I00
sg43
I0
sg44
I00
ssS'state9'
p286
(dp287
g34
I0
sg35
I0
sg36
I0
sg37
I0
sg38
I0
sg39
I00
sg40
I00
sg41
I00
sg42
I00
sg43
I0
sg44
I00
ssS'state8'
p288
(dp289
g34
I0
sg35
I0
sg36
I0
sg37
I0
sg38
I0
sg39
I00
sg40
I00
sg41
I00
sg42
I00
sg43
I0
sg44
I00
ssS'state62'
p290
(dp291
g34
I0
sg35
I0
sg36
I0
sg37
I0
sg38
I0
sg39
I00
sg40
I00
sg41
I00
sg42
I00
sg43
I0
sg44
I00
ssS'state22'
p292
(dp293
g34
I0
sg35
I0
sg36
I0
sg37
I0
sg38
I0
sg39
I00
sg40
I00
sg41
I00
sg42
I00
sg43
I0
sg44
I00
ssS'state23'
p294
(dp295
g34
I0
sg35
I0
sg36
I0
sg37
I0
sg38
I0
sg39
I00
sg40
I00
sg41
I00
sg42
I00
sg43
I0
sg44
I00
ssS'state20'
p296
(dp297
g34
I0
sg35
I0
sg36
I0
sg37
I0
sg38
I0
sg39
I00
sg40
I00
sg41
I00
sg42
I00
sg43
I0
sg44
I00
ssS'state21'
p298
(dp299
g34
I0
sg35
I0
sg36
I0
sg37
I0
sg38
I0
sg39
I00
sg40
I00
sg41
I00
sg42
I00
sg43
I0
sg44
I00
ssS'state26'
p300
(dp301
g34
I0
sg35
I0
sg36
I0
sg37
I0
sg38
I0
sg39
I00
sg40
I00
sg41
I00
sg42
I00
sg43
I0
sg44
I00
ssS'state27'
p302
(dp303
g34
I0
sg35
I0
sg36
I0
sg37
I0
sg38
I0
sg39
I00
sg40
I00
sg41
I00
sg42
I00
sg43
I0
sg44
I00
ssS'state24'
p304
(dp305
g34
I0
sg35
I0
sg36
I0
sg37
I0
sg38
I0
sg39
I00
sg40
I00
sg41
I00
sg42
I00
sg43
I0
sg44
I00
ssS'state25'
p306
(dp307
g34
I0
sg35
I0
sg36
I0
sg37
I0
sg38
I0
sg39
I00
sg40
I00
sg41
I00
sg42
I00
sg43
I0
sg44
I00
ssS'state28'
p308
(dp309
g34
I0
sg35
I0
sg36
I0
sg37
I0
sg38
I0
sg39
I00
sg40
I00
sg41
I00
sg42
I00
sg43
I0
sg44
I00
ssS'state29'
p310
(dp311
g34
I0
sg35
I0
sg36
I0
sg37
I0
sg38
I0
sg39
I00
sg40
I00
sg41
I00
sg42
I00
sg43
I0
sg44
I00
sssS'dfbAllStates2'
p312
(dp313
S'state44'
p314
(dp315
g34
I0
sg35
I0
sg36
I0
sg37
I0
sg38
I0
sg39
I00
sg40
I00
sg41
I00
sg42
I00
sg43
I0
sg44
I00
ssS'state45'
p316
(dp317
g34
I0
sg35
I0
sg36
I0
sg37
I0
sg38
I0
sg39
I00
sg40
I00
sg41
I00
sg42
I00
sg43
I0
sg44
I00
ssS'state46'
p318
(dp319
g34
I0
sg35
I0
sg36
I0
sg37
I0
sg38
I0
sg39
I00
sg40
I00
sg41
I00
sg42
I00
sg43
I0
sg44
I00
ssS'state47'
p320
(dp321
g34
I0
sg35
I0
sg36
I0
sg37
I0
sg38
I0
sg39
I00
sg40
I00
sg41
I00
sg42
I00
sg43
I0
sg44
I00
ssS'state40'
p322
(dp323
g34
I0
sg35
I0
sg36
I0
sg37
I0
sg38
I0
sg39
I00
sg40
I00
sg41
I00
sg42
I00
sg43
I0
sg44
I00
ssS'state41'
p324
(dp325
g34
I0
sg35
I0
sg36
I0
sg37
I0
sg38
I0
sg39
I00
sg40
I00
sg41
I00
sg42
I00
sg43
I0
sg44
I00
ssS'state42'
p326
(dp327
g34
I0
sg35
I0
sg36
I0
sg37
I0
sg38
I0
sg39
I00
sg40
I00
sg41
I00
sg42
I00
sg43
I0
sg44
I00
ssS'state43'
p328
(dp329
g34
I0
sg35
I0
sg36
I0
sg37
I0
sg38
I0
sg39
I00
sg40
I00
sg41
I00
sg42
I00
sg43
I0
sg44
I00
ssS'state48'
p330
(dp331
g34
I0
sg35
I0
sg36
I0
sg37
I0
sg38
I0
sg39
I00
sg40
I00
sg41
I00
sg42
I00
sg43
I0
sg44
I00
ssS'state49'
p332
(dp333
g34
I0
sg35
I0
sg36
I0
sg37
I0
sg38
I0
sg39
I00
sg40
I00
sg41
I00
sg42
I00
sg43
I0
sg44
I00
ssS'state60'
p334
(dp335
g34
I0
sg35
I0
sg36
I0
sg37
I0
sg38
I0
sg39
I00
sg40
I00
sg41
I00
sg42
I00
sg43
I0
sg44
I00
ssS'state61'
p336
(dp337
g34
I0
sg35
I0
sg36
I0
sg37
I0
sg38
I0
sg39
I00
sg40
I00
sg41
I00
sg42
I00
sg43
I0
sg44
I00
ssS'state58'
p338
(dp339
g34
I0
sg35
I0
sg36
I0
sg37
I0
sg38
I0
sg39
I00
sg40
I00
sg41
I00
sg42
I00
sg43
I0
sg44
I00
ssS'state54'
p340
(dp341
g34
I0
sg35
I0
sg36
I0
sg37
I0
sg38
I0
sg39
I00
sg40
I00
sg41
I00
sg42
I00
sg43
I0
sg44
I00
ssS'state59'
p342
(dp343
g34
I0
sg35
I0
sg36
I0
sg37
I0
sg38
I0
sg39
I00
sg40
I00
sg41
I00
sg42
I00
sg43
I0
sg44
I00
ssS'state63'
p344
(dp345
g34
I0
sg35
I0
sg36
I0
sg37
I0
sg38
I0
sg39
I00
sg40
I00
sg41
I00
sg42
I00
sg43
I0
sg44
I00
ssS'state55'
p346
(dp347
g34
I0
sg35
I0
sg36
I0
sg37
I0
sg38
I0
sg39
I00
sg40
I00
sg41
I00
sg42
I00
sg43
I0
sg44
I00
ssS'state35'
p348
(dp349
g34
I0
sg35
I0
sg36
I0
sg37
I0
sg38
I0
sg39
I00
sg40
I00
sg41
I00
sg42
I00
sg43
I0
sg44
I00
ssS'state34'
p350
(dp351
g34
I0
sg35
I0
sg36
I0
sg37
I0
sg38
I0
sg39
I00
sg40
I00
sg41
I00
sg42
I00
sg43
I0
sg44
I00
ssS'state37'
p352
(dp353
g34
I0
sg35
I0
sg36
I0
sg37
I0
sg38
I0
sg39
I00
sg40
I00
sg41
I00
sg42
I00
sg43
I0
sg44
I00
ssS'state36'
p354
(dp355
g34
I0
sg35
I0
sg36
I0
sg37
I0
sg38
I0
sg39
I00
sg40
I00
sg41
I00
sg42
I00
sg43
I0
sg44
I00
ssS'state31'
p356
(dp357
g34
I0
sg35
I0
sg36
I0
sg37
I0
sg38
I0
sg39
I00
sg40
I00
sg41
I00
sg42
I00
sg43
I0
sg44
I00
ssS'state30'
p358
(dp359
g34
I0
sg35
I0
sg36
I0
sg37
I0
sg38
I0
sg39
I00
sg40
I00
sg41
I00
sg42
I00
sg43
I0
sg44
I00
ssS'state33'
p360
(dp361
g34
I0
sg35
I0
sg36
I0
sg37
I0
sg38
I0
sg39
I00
sg40
I00
sg41
I00
sg42
I00
sg43
I0
sg44
I00
ssS'state32'
p362
(dp363
g34
I0
sg35
I0
sg36
I0
sg37
I0
sg38
I0
sg39
I00
sg40
I00
sg41
I00
sg42
I00
sg43
I0
sg44
I00
ssS'state39'
p364
(dp365
g34
I0
sg35
I0
sg36
I0
sg37
I0
sg38
I0
sg39
I00
sg40
I00
sg41
I00
sg42
I00
sg43
I0
sg44
I00
ssS'state38'
p366
(dp367
g34
I0
sg35
I0
sg36
I0
sg37
I0
sg38
I0
sg39
I00
sg40
I00
sg41
I00
sg42
I00
sg43
I0
sg44
I00
ssS'state57'
p368
(dp369
g34
I0
sg35
I0
sg36
I0
sg37
I0
sg38
I0
sg39
I00
sg40
I00
sg41
I00
sg42
I00
sg43
I0
sg44
I00
ssS'state56'
p370
(dp371
g34
I0
sg35
I0
sg36
I0
sg37
I0
sg38
I0
sg39
I00
sg40
I00
sg41
I00
sg42
I00
sg43
I0
sg44
I00
ssS'state19'
p372
(dp373
g34
I0
sg35
I0
sg36
I0
sg37
I0
sg38
I0
sg39
I00
sg40
I00
sg41
I00
sg42
I00
sg43
I0
sg44
I00
ssS'state18'
p374
(dp375
g34
I0
sg35
I0
sg36
I0
sg37
I0
sg38
I0
sg39
I00
sg40
I00
sg41
I00
sg42
I00
sg43
I0
sg44
I00
ssS'state53'
p376
(dp377
g34
I0
sg35
I0
sg36
I0
sg37
I0
sg38
I0
sg39
I00
sg40
I00
sg41
I00
sg42
I00
sg43
I0
sg44
I00
ssS'state52'
p378
(dp379
g34
I0
sg35
I0
sg36
I0
sg37
I0
sg38
I0
sg39
I00
sg40
I00
sg41
I00
sg42
I00
sg43
I0
sg44
I00
ssS'state51'
p380
(dp381
g34
I0
sg35
I0
sg36
I0
sg37
I0
sg38
I0
sg39
I00
sg40
I00
sg41
I00
sg42
I00
sg43
I0
sg44
I00
ssS'state50'
p382
(dp383
g34
I0
sg35
I0
sg36
I0
sg37
I0
sg38
I0
sg39
I00
sg40
I00
sg41
I00
sg42
I00
sg43
I0
sg44
I00
ssS'state13'
p384
(dp385
g34
I0
sg35
I0
sg36
I0
sg37
I0
sg38
I0
sg39
I00
sg40
I00
sg41
I00
sg42
I00
sg43
I0
sg44
I00
ssS'state12'
p386
(dp387
g34
I0
sg35
I0
sg36
I0
sg37
I0
sg38
I0
sg39
I00
sg40
I00
sg41
I00
sg42
I00
sg43
I0
sg44
I00
ssS'state11'
p388
(dp389
g34
I0
sg35
I0
sg36
I0
sg37
I0
sg38
I0
sg39
I00
sg40
I00
sg41
I00
sg42
I00
sg43
I0
sg44
I00
ssS'state10'
p390
(dp391
g34
I0
sg35
I0
sg36
I0
sg37
I0
sg38
I0
sg39
I00
sg40
I00
sg41
I00
sg42
I00
sg43
I0
sg44
I00
ssS'state17'
p392
(dp393
g34
I0
sg35
I0
sg36
I0
sg37
I0
sg38
I0
sg39
I00
sg40
I00
sg41
I00
sg42
I00
sg43
I0
sg44
I00
ssS'state16'
p394
(dp395
g34
I0
sg35
I0
sg36
I0
sg37
I0
sg38
I0
sg39
I00
sg40
I00
sg41
I00
sg42
I00
sg43
I0
sg44
I00
ssS'state15'
p396
(dp397
g34
I0
sg35
I0
sg36
I0
sg37
I0
sg38
I0
sg39
I00
sg40
I00
sg41
I00
sg42
I00
sg43
I0
sg44
I00
ssS'state14'
p398
(dp399
g34
I0
sg35
I0
sg36
I0
sg37
I0
sg38
I0
sg39
I00
sg40
I00
sg41
I00
sg42
I00
sg43
I0
sg44
I00
ssS'state3'
p400
(dp401
g34
I0
sg35
I4
sg36
I0
sg37
I0
sg38
I0
sg39
I00
sg40
I00
sg41
I00
sg42
I00
sg43
I0
sg44
I00
ssS'state2'
p402
(dp403
g34
I0
sg35
I3
sg36
I0
sg37
I0
sg38
I0
sg39
I00
sg40
I00
sg41
I00
sg42
I00
sg43
I0
sg44
I00
ssS'state1'
p404
(dp405
g34
I0
sg35
I2
sg36
I0
sg37
I0
sg38
I0
sg39
I00
sg40
I00
sg41
I00
sg42
I00
sg43
I0
sg44
I00
ssS'state0'
p406
(dp407
g34
I0
sg35
I1
sg36
I0
sg37
I0
sg38
I0
sg39
I00
sg40
I00
sg41
I00
sg42
I00
sg43
I0
sg44
I00
ssS'state7'
p408
(dp409
g34
I0
sg35
I0
sg36
I0
sg37
I0
sg38
I0
sg39
I00
sg40
I00
sg41
I00
sg42
I00
sg43
I0
sg44
I00
ssS'state6'
p410
(dp411
g34
I0
sg35
I0
sg36
I0
sg37
I0
sg38
I0
sg39
I00
sg40
I00
sg41
I00
sg42
I00
sg43
I0
sg44
I00
ssS'state5'
p412
(dp413
g34
I0
sg35
I0
sg36
I0
sg37
I0
sg38
I0
sg39
I00
sg40
I00
sg41
I00
sg42
I00
sg43
I0
sg44
I00
ssS'state4'
p414
(dp415
g34
I0
sg35
I0
sg36
I0
sg37
I0
sg38
I0
sg39
I00
sg40
I00
sg41
I00
sg42
I00
sg43
I0
sg44
I00
ssS'state9'
p416
(dp417
g34
I0
sg35
I0
sg36
I0
sg37
I0
sg38
I0
sg39
I00
sg40
I00
sg41
I00
sg42
I00
sg43
I0
sg44
I00
ssS'state8'
p418
(dp419
g34
I0
sg35
I0
sg36
I0
sg37
I0
sg38
I0
sg39
I00
sg40
I00
sg41
I00
sg42
I00
sg43
I0
sg44
I00
ssS'state62'
p420
(dp421
g34
I0
sg35
I0
sg36
I0
sg37
I0
sg38
I0
sg39
I00
sg40
I00
sg41
I00
sg42
I00
sg43
I0
sg44
I00
ssS'state22'
p422
(dp423
g34
I0
sg35
I0
sg36
I0
sg37
I0
sg38
I0
sg39
I00
sg40
I00
sg41
I00
sg42
I00
sg43
I0
sg44
I00
ssS'state23'
p424
(dp425
g34
I0
sg35
I0
sg36
I0
sg37
I0
sg38
I0
sg39
I00
sg40
I00
sg41
I00
sg42
I00
sg43
I0
sg44
I00
ssS'state20'
p426
(dp427
g34
I0
sg35
I0
sg36
I0
sg37
I0
sg38
I0
sg39
I00
sg40
I00
sg41
I00
sg42
I00
sg43
I0
sg44
I00
ssS'state21'
p428
(dp429
g34
I0
sg35
I0
sg36
I0
sg37
I0
sg38
I0
sg39
I00
sg40
I00
sg41
I00
sg42
I00
sg43
I0
sg44
I00
ssS'state26'
p430
(dp431
g34
I0
sg35
I0
sg36
I0
sg37
I0
sg38
I0
sg39
I00
sg40
I00
sg41
I00
sg42
I00
sg43
I0
sg44
I00
ssS'state27'
p432
(dp433
g34
I0
sg35
I0
sg36
I0
sg37
I0
sg38
I0
sg39
I00
sg40
I00
sg41
I00
sg42
I00
sg43
I0
sg44
I00
ssS'state24'
p434
(dp435
g34
I0
sg35
I0
sg36
I0
sg37
I0
sg38
I0
sg39
I00
sg40
I00
sg41
I00
sg42
I00
sg43
I0
sg44
I00
ssS'state25'
p436
(dp437
g34
I0
sg35
I0
sg36
I0
sg37
I0
sg38
I0
sg39
I00
sg40
I00
sg41
I00
sg42
I00
sg43
I0
sg44
I00
ssS'state28'
p438
(dp439
g34
I0
sg35
I0
sg36
I0
sg37
I0
sg38
I0
sg39
I00
sg40
I00
sg41
I00
sg42
I00
sg43
I0
sg44
I00
ssS'state29'
p440
(dp441
g34
I0
sg35
I0
sg36
I0
sg37
I0
sg38
I0
sg39
I00
sg40
I00
sg41
I00
sg42
I00
sg43
I0
sg44
I00
sssS'CHglobals2'
p442
(dp443
g31
I01
ssS'CHglobals1'
p444
(dp445
g31
I01
sssS'classParameters2'
p446
(dp447
g25
(dp448
g27
I00
sg28
I00
ssS'bad16MasterVector'
p449
(dp450
S'tri'
p451
I00
sS'd2a_hi'
p452
I0
sS'd2a_lo'
p453
I0
sS'dc'
p454
I00
sS'LoHi'
p455
I01
ssss.