(dp0
S'CrateConfig'
p1
(dp2
S'AddressVector'
p3
(lp4
I1
aI3
aI32
asS'SlotVector'
p5
(lp6
I1
aI3
aI10
asS'ClassVector'
p7
(lp8
S'DFBCLK'
p9
aS'DFBx2'
p10
aS'BAD16'
p11
assS'globals'
p12
(dp13
S'PS'
p14
I00
sS'SEQLN'
p15
I4
sS'PROP_DELAY'
p16
I3
sS'RLD_NEG'
p17
I4
sS'TRI_IDX'
p18
I00
sS'LSYNC'
p19
I40
sS'TRI_DWELL'
p20
I0
sS'DFBx2_XPT'
p21
I0
sS'NSAMP'
p22
I4
sS'TP'
p23
I0
sS'RLD_TRACK'
p24
I01
sS'SETT'
p25
I12
sS'TRI_STEP'
p26
I8
sS'DFBCLK_XPT'
p27
I5
sS'DFB_DELAY'
p28
I0
sS'RLD_POS'
p29
I64
sS'TRI_RANGE'
p30
I10
sS'ARL_SENSE'
p31
I1024
ssS'classParameters'
p32
(dp33
S'classParameters0'
p34
(dp35
S'CARDglobals'
p36
(dp37
S'LED'
p38
I00
sS'ST'
p39
I00
ssS'CHglobals'
p40
(dp41
S'enb'
p42
I01
ssS'dfbMasterVector'
p43
(dp44
S'I'
p45
I0
sS'd2a_B'
p46
I0
sS'd2a_A'
p47
I0
sS'P'
p48
I0
sS'a2d_lockpt'
p49
I0
sS'triA'
p50
I00
sS'triB'
p51
I00
sS'FBB'
p52
I00
sS'FBA'
p53
I00
sS'SM'
p54
I0
sS'ARL'
p55
I00
ssS'CARDphase'
p56
(dp57
S'coeff3'
p58
S'0'
p59
sS'coeff2'
p60
S'-2'
p61
sS'coeff1'
p62
S'1'
p63
sS'coeff0'
p64
S'1'
p65
sS'coeff5'
p66
S'0'
p67
sS'coeff4'
p68
S'0'
p69
ssS'dfbAllStates'
p70
(dp71
S'state44'
p72
(dp73
g45
I0
sg46
I0
sg47
I0
sg48
I0
sg49
I0
sg50
I00
sg51
I00
sg52
I00
sg53
I00
sg54
I0
sg55
I00
ssS'state45'
p74
(dp75
g45
I0
sg46
I0
sg47
I0
sg48
I0
sg49
I0
sg50
I00
sg51
I00
sg52
I00
sg53
I00
sg54
I0
sg55
I00
ssS'state46'
p76
(dp77
g45
I0
sg46
I0
sg47
I0
sg48
I0
sg49
I0
sg50
I00
sg51
I00
sg52
I00
sg53
I00
sg54
I0
sg55
I00
ssS'state47'
p78
(dp79
g45
I0
sg46
I0
sg47
I0
sg48
I0
sg49
I0
sg50
I00
sg51
I00
sg52
I00
sg53
I00
sg54
I0
sg55
I00
ssS'state40'
p80
(dp81
g45
I0
sg46
I0
sg47
I0
sg48
I0
sg49
I0
sg50
I00
sg51
I00
sg52
I00
sg53
I00
sg54
I0
sg55
I00
ssS'state41'
p82
(dp83
g45
I0
sg46
I0
sg47
I0
sg48
I0
sg49
I0
sg50
I00
sg51
I00
sg52
I00
sg53
I00
sg54
I0
sg55
I00
ssS'state42'
p84
(dp85
g45
I0
sg46
I0
sg47
I0
sg48
I0
sg49
I0
sg50
I00
sg51
I00
sg52
I00
sg53
I00
sg54
I0
sg55
I00
ssS'state43'
p86
(dp87
g45
I0
sg46
I0
sg47
I0
sg48
I0
sg49
I0
sg50
I00
sg51
I00
sg52
I00
sg53
I00
sg54
I0
sg55
I00
ssS'state48'
p88
(dp89
g45
I0
sg46
I0
sg47
I0
sg48
I0
sg49
I0
sg50
I00
sg51
I00
sg52
I00
sg53
I00
sg54
I0
sg55
I00
ssS'state49'
p90
(dp91
g45
I0
sg46
I0
sg47
I0
sg48
I0
sg49
I0
sg50
I00
sg51
I00
sg52
I00
sg53
I00
sg54
I0
sg55
I00
ssS'state60'
p92
(dp93
g45
I0
sg46
I0
sg47
I0
sg48
I0
sg49
I0
sg50
I00
sg51
I00
sg52
I00
sg53
I00
sg54
I0
sg55
I00
ssS'state61'
p94
(dp95
g45
I0
sg46
I0
sg47
I0
sg48
I0
sg49
I0
sg50
I00
sg51
I00
sg52
I00
sg53
I00
sg54
I0
sg55
I00
ssS'state58'
p96
(dp97
g45
I0
sg46
I0
sg47
I0
sg48
I0
sg49
I0
sg50
I00
sg51
I00
sg52
I00
sg53
I00
sg54
I0
sg55
I00
ssS'state54'
p98
(dp99
g45
I0
sg46
I0
sg47
I0
sg48
I0
sg49
I0
sg50
I00
sg51
I00
sg52
I00
sg53
I00
sg54
I0
sg55
I00
ssS'state59'
p100
(dp101
g45
I0
sg46
I0
sg47
I0
sg48
I0
sg49
I0
sg50
I00
sg51
I00
sg52
I00
sg53
I00
sg54
I0
sg55
I00
ssS'state63'
p102
(dp103
g45
I0
sg46
I0
sg47
I0
sg48
I0
sg49
I0
sg50
I00
sg51
I00
sg52
I00
sg53
I00
sg54
I0
sg55
I00
ssS'state55'
p104
(dp105
g45
I0
sg46
I0
sg47
I0
sg48
I0
sg49
I0
sg50
I00
sg51
I00
sg52
I00
sg53
I00
sg54
I0
sg55
I00
ssS'state35'
p106
(dp107
g45
I0
sg46
I0
sg47
I0
sg48
I0
sg49
I0
sg50
I00
sg51
I00
sg52
I00
sg53
I00
sg54
I0
sg55
I00
ssS'state34'
p108
(dp109
g45
I0
sg46
I0
sg47
I0
sg48
I0
sg49
I0
sg50
I00
sg51
I00
sg52
I00
sg53
I00
sg54
I0
sg55
I00
ssS'state37'
p110
(dp111
g45
I0
sg46
I0
sg47
I0
sg48
I0
sg49
I0
sg50
I00
sg51
I00
sg52
I00
sg53
I00
sg54
I0
sg55
I00
ssS'state36'
p112
(dp113
g45
I0
sg46
I0
sg47
I0
sg48
I0
sg49
I0
sg50
I00
sg51
I00
sg52
I00
sg53
I00
sg54
I0
sg55
I00
ssS'state31'
p114
(dp115
g45
I0
sg46
I0
sg47
I0
sg48
I0
sg49
I0
sg50
I00
sg51
I00
sg52
I00
sg53
I00
sg54
I0
sg55
I00
ssS'state30'
p116
(dp117
g45
I0
sg46
I0
sg47
I0
sg48
I0
sg49
I0
sg50
I00
sg51
I00
sg52
I00
sg53
I00
sg54
I0
sg55
I00
ssS'state33'
p118
(dp119
g45
I0
sg46
I0
sg47
I0
sg48
I0
sg49
I0
sg50
I00
sg51
I00
sg52
I00
sg53
I00
sg54
I0
sg55
I00
ssS'state32'
p120
(dp121
g45
I0
sg46
I0
sg47
I0
sg48
I0
sg49
I0
sg50
I00
sg51
I00
sg52
I00
sg53
I00
sg54
I0
sg55
I00
ssS'state39'
p122
(dp123
g45
I0
sg46
I0
sg47
I0
sg48
I0
sg49
I0
sg50
I00
sg51
I00
sg52
I00
sg53
I00
sg54
I0
sg55
I00
ssS'state38'
p124
(dp125
g45
I0
sg46
I0
sg47
I0
sg48
I0
sg49
I0
sg50
I00
sg51
I00
sg52
I00
sg53
I00
sg54
I0
sg55
I00
ssS'state57'
p126
(dp127
g45
I0
sg46
I0
sg47
I0
sg48
I0
sg49
I0
sg50
I00
sg51
I00
sg52
I00
sg53
I00
sg54
I0
sg55
I00
ssS'state56'
p128
(dp129
g45
I0
sg46
I0
sg47
I0
sg48
I0
sg49
I0
sg50
I00
sg51
I00
sg52
I00
sg53
I00
sg54
I0
sg55
I00
ssS'state19'
p130
(dp131
g45
I0
sg46
I0
sg47
I0
sg48
I0
sg49
I0
sg50
I00
sg51
I00
sg52
I00
sg53
I00
sg54
I0
sg55
I00
ssS'state18'
p132
(dp133
g45
I0
sg46
I0
sg47
I0
sg48
I0
sg49
I0
sg50
I00
sg51
I00
sg52
I00
sg53
I00
sg54
I0
sg55
I00
ssS'state53'
p134
(dp135
g45
I0
sg46
I0
sg47
I0
sg48
I0
sg49
I0
sg50
I00
sg51
I00
sg52
I00
sg53
I00
sg54
I0
sg55
I00
ssS'state52'
p136
(dp137
g45
I0
sg46
I0
sg47
I0
sg48
I0
sg49
I0
sg50
I00
sg51
I00
sg52
I00
sg53
I00
sg54
I0
sg55
I00
ssS'state51'
p138
(dp139
g45
I0
sg46
I0
sg47
I0
sg48
I0
sg49
I0
sg50
I00
sg51
I00
sg52
I00
sg53
I00
sg54
I0
sg55
I00
ssS'state50'
p140
(dp141
g45
I0
sg46
I0
sg47
I0
sg48
I0
sg49
I0
sg50
I00
sg51
I00
sg52
I00
sg53
I00
sg54
I0
sg55
I00
ssS'state13'
p142
(dp143
g45
I0
sg46
I0
sg47
I0
sg48
I0
sg49
I0
sg50
I00
sg51
I00
sg52
I00
sg53
I00
sg54
I0
sg55
I00
ssS'state12'
p144
(dp145
g45
I0
sg46
I0
sg47
I0
sg48
I0
sg49
I0
sg50
I00
sg51
I00
sg52
I00
sg53
I00
sg54
I0
sg55
I00
ssS'state11'
p146
(dp147
g45
I0
sg46
I0
sg47
I0
sg48
I0
sg49
I0
sg50
I00
sg51
I00
sg52
I00
sg53
I00
sg54
I0
sg55
I00
ssS'state10'
p148
(dp149
g45
I0
sg46
I0
sg47
I0
sg48
I0
sg49
I0
sg50
I00
sg51
I00
sg52
I00
sg53
I00
sg54
I0
sg55
I00
ssS'state17'
p150
(dp151
g45
I0
sg46
I0
sg47
I0
sg48
I0
sg49
I0
sg50
I00
sg51
I00
sg52
I00
sg53
I00
sg54
I0
sg55
I00
ssS'state16'
p152
(dp153
g45
I0
sg46
I0
sg47
I0
sg48
I0
sg49
I0
sg50
I00
sg51
I00
sg52
I00
sg53
I00
sg54
I0
sg55
I00
ssS'state15'
p154
(dp155
g45
I0
sg46
I0
sg47
I0
sg48
I0
sg49
I0
sg50
I00
sg51
I00
sg52
I00
sg53
I00
sg54
I0
sg55
I00
ssS'state14'
p156
(dp157
g45
I0
sg46
I0
sg47
I0
sg48
I0
sg49
I0
sg50
I00
sg51
I00
sg52
I00
sg53
I00
sg54
I0
sg55
I00
ssS'state3'
p158
(dp159
g45
I0
sg46
I0
sg47
I0
sg48
I0
sg49
I0
sg50
I00
sg51
I00
sg52
I00
sg53
I00
sg54
I0
sg55
I00
ssS'state2'
p160
(dp161
g45
I0
sg46
I0
sg47
I0
sg48
I0
sg49
I0
sg50
I00
sg51
I00
sg52
I00
sg53
I00
sg54
I0
sg55
I00
ssS'state1'
p162
(dp163
g45
I0
sg46
I0
sg47
I0
sg48
I0
sg49
I0
sg50
I00
sg51
I00
sg52
I00
sg53
I00
sg54
I0
sg55
I00
ssS'state0'
p164
(dp165
g45
I0
sg46
I0
sg47
I0
sg48
I0
sg49
I0
sg50
I00
sg51
I00
sg52
I00
sg53
I00
sg54
I0
sg55
I00
ssS'state7'
p166
(dp167
g45
I0
sg46
I0
sg47
I0
sg48
I0
sg49
I0
sg50
I00
sg51
I00
sg52
I00
sg53
I00
sg54
I0
sg55
I00
ssS'state6'
p168
(dp169
g45
I0
sg46
I0
sg47
I0
sg48
I0
sg49
I0
sg50
I00
sg51
I00
sg52
I00
sg53
I00
sg54
I0
sg55
I00
ssS'state5'
p170
(dp171
g45
I0
sg46
I0
sg47
I0
sg48
I0
sg49
I0
sg50
I00
sg51
I00
sg52
I00
sg53
I00
sg54
I0
sg55
I00
ssS'state4'
p172
(dp173
g45
I0
sg46
I0
sg47
I0
sg48
I0
sg49
I0
sg50
I00
sg51
I00
sg52
I00
sg53
I00
sg54
I0
sg55
I00
ssS'state9'
p174
(dp175
g45
I0
sg46
I0
sg47
I0
sg48
I0
sg49
I0
sg50
I00
sg51
I00
sg52
I00
sg53
I00
sg54
I0
sg55
I00
ssS'state8'
p176
(dp177
g45
I0
sg46
I0
sg47
I0
sg48
I0
sg49
I0
sg50
I00
sg51
I00
sg52
I00
sg53
I00
sg54
I0
sg55
I00
ssS'state62'
p178
(dp179
g45
I0
sg46
I0
sg47
I0
sg48
I0
sg49
I0
sg50
I00
sg51
I00
sg52
I00
sg53
I00
sg54
I0
sg55
I00
ssS'state22'
p180
(dp181
g45
I0
sg46
I0
sg47
I0
sg48
I0
sg49
I0
sg50
I00
sg51
I00
sg52
I00
sg53
I00
sg54
I0
sg55
I00
ssS'state23'
p182
(dp183
g45
I0
sg46
I0
sg47
I0
sg48
I0
sg49
I0
sg50
I00
sg51
I00
sg52
I00
sg53
I00
sg54
I0
sg55
I00
ssS'state20'
p184
(dp185
g45
I0
sg46
I0
sg47
I0
sg48
I0
sg49
I0
sg50
I00
sg51
I00
sg52
I00
sg53
I00
sg54
I0
sg55
I00
ssS'state21'
p186
(dp187
g45
I0
sg46
I0
sg47
I0
sg48
I0
sg49
I0
sg50
I00
sg51
I00
sg52
I00
sg53
I00
sg54
I0
sg55
I00
ssS'state26'
p188
(dp189
g45
I0
sg46
I0
sg47
I0
sg48
I0
sg49
I0
sg50
I00
sg51
I00
sg52
I00
sg53
I00
sg54
I0
sg55
I00
ssS'state27'
p190
(dp191
g45
I0
sg46
I0
sg47
I0
sg48
I0
sg49
I0
sg50
I00
sg51
I00
sg52
I00
sg53
I00
sg54
I0
sg55
I00
ssS'state24'
p192
(dp193
g45
I0
sg46
I0
sg47
I0
sg48
I0
sg49
I0
sg50
I00
sg51
I00
sg52
I00
sg53
I00
sg54
I0
sg55
I00
ssS'state25'
p194
(dp195
g45
I0
sg46
I0
sg47
I0
sg48
I0
sg49
I0
sg50
I00
sg51
I00
sg52
I00
sg53
I00
sg54
I0
sg55
I00
ssS'state28'
p196
(dp197
g45
I0
sg46
I0
sg47
I0
sg48
I0
sg49
I0
sg50
I00
sg51
I00
sg52
I00
sg53
I00
sg54
I0
sg55
I00
ssS'state29'
p198
(dp199
g45
I0
sg46
I0
sg47
I0
sg48
I0
sg49
I0
sg50
I00
sg51
I00
sg52
I00
sg53
I00
sg54
I0
sg55
I00
ssssS'classParameters1'
p200
(dp201
g36
(dp202
g38
I00
sg39
I00
ssS'dfbAllStates1'
p203
(dp204
S'state44'
p205
(dp206
g45
I0
sg46
I0
sg47
I0
sg48
I0
sg49
I0
sg50
I00
sg51
I00
sg52
I00
sg53
I00
sg54
I0
sg55
I00
ssS'state45'
p207
(dp208
g45
I0
sg46
I0
sg47
I0
sg48
I0
sg49
I0
sg50
I00
sg51
I00
sg52
I00
sg53
I00
sg54
I0
sg55
I00
ssS'state46'
p209
(dp210
g45
I0
sg46
I0
sg47
I0
sg48
I0
sg49
I0
sg50
I00
sg51
I00
sg52
I00
sg53
I00
sg54
I0
sg55
I00
ssS'state47'
p211
(dp212
g45
I0
sg46
I0
sg47
I0
sg48
I0
sg49
I0
sg50
I00
sg51
I00
sg52
I00
sg53
I00
sg54
I0
sg55
I00
ssS'state40'
p213
(dp214
g45
I0
sg46
I0
sg47
I0
sg48
I0
sg49
I0
sg50
I00
sg51
I00
sg52
I00
sg53
I00
sg54
I0
sg55
I00
ssS'state41'
p215
(dp216
g45
I0
sg46
I0
sg47
I0
sg48
I0
sg49
I0
sg50
I00
sg51
I00
sg52
I00
sg53
I00
sg54
I0
sg55
I00
ssS'state42'
p217
(dp218
g45
I0
sg46
I0
sg47
I0
sg48
I0
sg49
I0
sg50
I00
sg51
I00
sg52
I00
sg53
I00
sg54
I0
sg55
I00
ssS'state43'
p219
(dp220
g45
I0
sg46
I0
sg47
I0
sg48
I0
sg49
I0
sg50
I00
sg51
I00
sg52
I00
sg53
I00
sg54
I0
sg55
I00
ssS'state48'
p221
(dp222
g45
I0
sg46
I0
sg47
I0
sg48
I0
sg49
I0
sg50
I00
sg51
I00
sg52
I00
sg53
I00
sg54
I0
sg55
I00
ssS'state49'
p223
(dp224
g45
I0
sg46
I0
sg47
I0
sg48
I0
sg49
I0
sg50
I00
sg51
I00
sg52
I00
sg53
I00
sg54
I0
sg55
I00
ssS'state60'
p225
(dp226
g45
I0
sg46
I0
sg47
I0
sg48
I0
sg49
I0
sg50
I00
sg51
I00
sg52
I00
sg53
I00
sg54
I0
sg55
I00
ssS'state61'
p227
(dp228
g45
I0
sg46
I0
sg47
I0
sg48
I0
sg49
I0
sg50
I00
sg51
I00
sg52
I00
sg53
I00
sg54
I0
sg55
I00
ssS'state58'
p229
(dp230
g45
I0
sg46
I0
sg47
I0
sg48
I0
sg49
I0
sg50
I00
sg51
I00
sg52
I00
sg53
I00
sg54
I0
sg55
I00
ssS'state54'
p231
(dp232
g45
I0
sg46
I0
sg47
I0
sg48
I0
sg49
I0
sg50
I00
sg51
I00
sg52
I00
sg53
I00
sg54
I0
sg55
I00
ssS'state59'
p233
(dp234
g45
I0
sg46
I0
sg47
I0
sg48
I0
sg49
I0
sg50
I00
sg51
I00
sg52
I00
sg53
I00
sg54
I0
sg55
I00
ssS'state63'
p235
(dp236
g45
I0
sg46
I0
sg47
I0
sg48
I0
sg49
I0
sg50
I00
sg51
I00
sg52
I00
sg53
I00
sg54
I0
sg55
I00
ssS'state55'
p237
(dp238
g45
I0
sg46
I0
sg47
I0
sg48
I0
sg49
I0
sg50
I00
sg51
I00
sg52
I00
sg53
I00
sg54
I0
sg55
I00
ssS'state35'
p239
(dp240
g45
I0
sg46
I0
sg47
I0
sg48
I0
sg49
I0
sg50
I00
sg51
I00
sg52
I00
sg53
I00
sg54
I0
sg55
I00
ssS'state34'
p241
(dp242
g45
I0
sg46
I0
sg47
I0
sg48
I0
sg49
I0
sg50
I00
sg51
I00
sg52
I00
sg53
I00
sg54
I0
sg55
I00
ssS'state37'
p243
(dp244
g45
I0
sg46
I0
sg47
I0
sg48
I0
sg49
I0
sg50
I00
sg51
I00
sg52
I00
sg53
I00
sg54
I0
sg55
I00
ssS'state36'
p245
(dp246
g45
I0
sg46
I0
sg47
I0
sg48
I0
sg49
I0
sg50
I00
sg51
I00
sg52
I00
sg53
I00
sg54
I0
sg55
I00
ssS'state31'
p247
(dp248
g45
I0
sg46
I0
sg47
I0
sg48
I0
sg49
I0
sg50
I00
sg51
I00
sg52
I00
sg53
I00
sg54
I0
sg55
I00
ssS'state30'
p249
(dp250
g45
I0
sg46
I0
sg47
I0
sg48
I0
sg49
I0
sg50
I00
sg51
I00
sg52
I00
sg53
I00
sg54
I0
sg55
I00
ssS'state33'
p251
(dp252
g45
I0
sg46
I0
sg47
I0
sg48
I0
sg49
I0
sg50
I00
sg51
I00
sg52
I00
sg53
I00
sg54
I0
sg55
I00
ssS'state32'
p253
(dp254
g45
I0
sg46
I0
sg47
I0
sg48
I0
sg49
I0
sg50
I00
sg51
I00
sg52
I00
sg53
I00
sg54
I0
sg55
I00
ssS'state39'
p255
(dp256
g45
I0
sg46
I0
sg47
I0
sg48
I0
sg49
I0
sg50
I00
sg51
I00
sg52
I00
sg53
I00
sg54
I0
sg55
I00
ssS'state38'
p257
(dp258
g45
I0
sg46
I0
sg47
I0
sg48
I0
sg49
I0
sg50
I00
sg51
I00
sg52
I00
sg53
I00
sg54
I0
sg55
I00
ssS'state57'
p259
(dp260
g45
I0
sg46
I0
sg47
I0
sg48
I0
sg49
I0
sg50
I00
sg51
I00
sg52
I00
sg53
I00
sg54
I0
sg55
I00
ssS'state56'
p261
(dp262
g45
I0
sg46
I0
sg47
I0
sg48
I0
sg49
I0
sg50
I00
sg51
I00
sg52
I00
sg53
I00
sg54
I0
sg55
I00
ssS'state19'
p263
(dp264
g45
I0
sg46
I0
sg47
I0
sg48
I0
sg49
I0
sg50
I00
sg51
I00
sg52
I00
sg53
I00
sg54
I0
sg55
I00
ssS'state18'
p265
(dp266
g45
I0
sg46
I0
sg47
I0
sg48
I0
sg49
I0
sg50
I00
sg51
I00
sg52
I00
sg53
I00
sg54
I0
sg55
I00
ssS'state53'
p267
(dp268
g45
I0
sg46
I0
sg47
I0
sg48
I0
sg49
I0
sg50
I00
sg51
I00
sg52
I00
sg53
I00
sg54
I0
sg55
I00
ssS'state52'
p269
(dp270
g45
I0
sg46
I0
sg47
I0
sg48
I0
sg49
I0
sg50
I00
sg51
I00
sg52
I00
sg53
I00
sg54
I0
sg55
I00
ssS'state51'
p271
(dp272
g45
I0
sg46
I0
sg47
I0
sg48
I0
sg49
I0
sg50
I00
sg51
I00
sg52
I00
sg53
I00
sg54
I0
sg55
I00
ssS'state50'
p273
(dp274
g45
I0
sg46
I0
sg47
I0
sg48
I0
sg49
I0
sg50
I00
sg51
I00
sg52
I00
sg53
I00
sg54
I0
sg55
I00
ssS'state13'
p275
(dp276
g45
I0
sg46
I0
sg47
I0
sg48
I0
sg49
I0
sg50
I00
sg51
I00
sg52
I00
sg53
I00
sg54
I0
sg55
I00
ssS'state12'
p277
(dp278
g45
I0
sg46
I0
sg47
I0
sg48
I0
sg49
I0
sg50
I00
sg51
I00
sg52
I00
sg53
I00
sg54
I0
sg55
I00
ssS'state11'
p279
(dp280
g45
I0
sg46
I0
sg47
I0
sg48
I0
sg49
I0
sg50
I00
sg51
I00
sg52
I00
sg53
I00
sg54
I0
sg55
I00
ssS'state10'
p281
(dp282
g45
I0
sg46
I0
sg47
I0
sg48
I0
sg49
I0
sg50
I00
sg51
I00
sg52
I00
sg53
I00
sg54
I0
sg55
I00
ssS'state17'
p283
(dp284
g45
I0
sg46
I0
sg47
I0
sg48
I0
sg49
I0
sg50
I00
sg51
I00
sg52
I00
sg53
I00
sg54
I0
sg55
I00
ssS'state16'
p285
(dp286
g45
I0
sg46
I0
sg47
I0
sg48
I0
sg49
I0
sg50
I00
sg51
I00
sg52
I00
sg53
I00
sg54
I0
sg55
I00
ssS'state15'
p287
(dp288
g45
I0
sg46
I0
sg47
I0
sg48
I0
sg49
I0
sg50
I00
sg51
I00
sg52
I00
sg53
I00
sg54
I0
sg55
I00
ssS'state14'
p289
(dp290
g45
I0
sg46
I0
sg47
I0
sg48
I0
sg49
I0
sg50
I00
sg51
I00
sg52
I00
sg53
I00
sg54
I0
sg55
I00
ssS'state3'
p291
(dp292
g45
I0
sg46
I0
sg47
I0
sg48
I0
sg49
I0
sg50
I00
sg51
I00
sg52
I00
sg53
I00
sg54
I0
sg55
I00
ssS'state2'
p293
(dp294
g45
I0
sg46
I0
sg47
I0
sg48
I0
sg49
I0
sg50
I00
sg51
I00
sg52
I00
sg53
I00
sg54
I0
sg55
I00
ssS'state1'
p295
(dp296
g45
I0
sg46
I0
sg47
I0
sg48
I0
sg49
I0
sg50
I00
sg51
I00
sg52
I00
sg53
I00
sg54
I0
sg55
I00
ssS'state0'
p297
(dp298
g45
I0
sg46
I0
sg47
I0
sg48
I0
sg49
I0
sg50
I00
sg51
I00
sg52
I00
sg53
I00
sg54
I0
sg55
I00
ssS'state7'
p299
(dp300
g45
I0
sg46
I0
sg47
I0
sg48
I0
sg49
I0
sg50
I00
sg51
I00
sg52
I00
sg53
I00
sg54
I0
sg55
I00
ssS'state6'
p301
(dp302
g45
I0
sg46
I0
sg47
I0
sg48
I0
sg49
I0
sg50
I00
sg51
I00
sg52
I00
sg53
I00
sg54
I0
sg55
I00
ssS'state5'
p303
(dp304
g45
I0
sg46
I0
sg47
I0
sg48
I0
sg49
I0
sg50
I00
sg51
I00
sg52
I00
sg53
I00
sg54
I0
sg55
I00
ssS'state4'
p305
(dp306
g45
I0
sg46
I0
sg47
I0
sg48
I0
sg49
I0
sg50
I00
sg51
I00
sg52
I00
sg53
I00
sg54
I0
sg55
I00
ssS'state9'
p307
(dp308
g45
I0
sg46
I0
sg47
I0
sg48
I0
sg49
I0
sg50
I00
sg51
I00
sg52
I00
sg53
I00
sg54
I0
sg55
I00
ssS'state8'
p309
(dp310
g45
I0
sg46
I0
sg47
I0
sg48
I0
sg49
I0
sg50
I00
sg51
I00
sg52
I00
sg53
I00
sg54
I0
sg55
I00
ssS'state62'
p311
(dp312
g45
I0
sg46
I0
sg47
I0
sg48
I0
sg49
I0
sg50
I00
sg51
I00
sg52
I00
sg53
I00
sg54
I0
sg55
I00
ssS'state22'
p313
(dp314
g45
I0
sg46
I0
sg47
I0
sg48
I0
sg49
I0
sg50
I00
sg51
I00
sg52
I00
sg53
I00
sg54
I0
sg55
I00
ssS'state23'
p315
(dp316
g45
I0
sg46
I0
sg47
I0
sg48
I0
sg49
I0
sg50
I00
sg51
I00
sg52
I00
sg53
I00
sg54
I0
sg55
I00
ssS'state20'
p317
(dp318
g45
I0
sg46
I0
sg47
I0
sg48
I0
sg49
I0
sg50
I00
sg51
I00
sg52
I00
sg53
I00
sg54
I0
sg55
I00
ssS'state21'
p319
(dp320
g45
I0
sg46
I0
sg47
I0
sg48
I0
sg49
I0
sg50
I00
sg51
I00
sg52
I00
sg53
I00
sg54
I0
sg55
I00
ssS'state26'
p321
(dp322
g45
I0
sg46
I0
sg47
I0
sg48
I0
sg49
I0
sg50
I00
sg51
I00
sg52
I00
sg53
I00
sg54
I0
sg55
I00
ssS'state27'
p323
(dp324
g45
I0
sg46
I0
sg47
I0
sg48
I0
sg49
I0
sg50
I00
sg51
I00
sg52
I00
sg53
I00
sg54
I0
sg55
I00
ssS'state24'
p325
(dp326
g45
I0
sg46
I0
sg47
I0
sg48
I0
sg49
I0
sg50
I00
sg51
I00
sg52
I00
sg53
I00
sg54
I0
sg55
I00
ssS'state25'
p327
(dp328
g45
I0
sg46
I0
sg47
I0
sg48
I0
sg49
I0
sg50
I00
sg51
I00
sg52
I00
sg53
I00
sg54
I0
sg55
I00
ssS'state28'
p329
(dp330
g45
I0
sg46
I0
sg47
I0
sg48
I0
sg49
I0
sg50
I00
sg51
I00
sg52
I00
sg53
I00
sg54
I0
sg55
I00
ssS'state29'
p331
(dp332
g45
I0
sg46
I0
sg47
I0
sg48
I0
sg49
I0
sg50
I00
sg51
I00
sg52
I00
sg53
I00
sg54
I0
sg55
I00
sssS'dfbAllStates2'
p333
(dp334
S'state44'
p335
(dp336
g45
I0
sg46
I0
sg47
I0
sg48
I0
sg49
I0
sg50
I00
sg51
I00
sg52
I00
sg53
I00
sg54
I0
sg55
I00
ssS'state45'
p337
(dp338
g45
I0
sg46
I0
sg47
I0
sg48
I0
sg49
I0
sg50
I00
sg51
I00
sg52
I00
sg53
I00
sg54
I0
sg55
I00
ssS'state46'
p339
(dp340
g45
I0
sg46
I0
sg47
I0
sg48
I0
sg49
I0
sg50
I00
sg51
I00
sg52
I00
sg53
I00
sg54
I0
sg55
I00
ssS'state47'
p341
(dp342
g45
I0
sg46
I0
sg47
I0
sg48
I0
sg49
I0
sg50
I00
sg51
I00
sg52
I00
sg53
I00
sg54
I0
sg55
I00
ssS'state40'
p343
(dp344
g45
I0
sg46
I0
sg47
I0
sg48
I0
sg49
I0
sg50
I00
sg51
I00
sg52
I00
sg53
I00
sg54
I0
sg55
I00
ssS'state41'
p345
(dp346
g45
I0
sg46
I0
sg47
I0
sg48
I0
sg49
I0
sg50
I00
sg51
I00
sg52
I00
sg53
I00
sg54
I0
sg55
I00
ssS'state42'
p347
(dp348
g45
I0
sg46
I0
sg47
I0
sg48
I0
sg49
I0
sg50
I00
sg51
I00
sg52
I00
sg53
I00
sg54
I0
sg55
I00
ssS'state43'
p349
(dp350
g45
I0
sg46
I0
sg47
I0
sg48
I0
sg49
I0
sg50
I00
sg51
I00
sg52
I00
sg53
I00
sg54
I0
sg55
I00
ssS'state48'
p351
(dp352
g45
I0
sg46
I0
sg47
I0
sg48
I0
sg49
I0
sg50
I00
sg51
I00
sg52
I00
sg53
I00
sg54
I0
sg55
I00
ssS'state49'
p353
(dp354
g45
I0
sg46
I0
sg47
I0
sg48
I0
sg49
I0
sg50
I00
sg51
I00
sg52
I00
sg53
I00
sg54
I0
sg55
I00
ssS'state60'
p355
(dp356
g45
I0
sg46
I0
sg47
I0
sg48
I0
sg49
I0
sg50
I00
sg51
I00
sg52
I00
sg53
I00
sg54
I0
sg55
I00
ssS'state61'
p357
(dp358
g45
I0
sg46
I0
sg47
I0
sg48
I0
sg49
I0
sg50
I00
sg51
I00
sg52
I00
sg53
I00
sg54
I0
sg55
I00
ssS'state58'
p359
(dp360
g45
I0
sg46
I0
sg47
I0
sg48
I0
sg49
I0
sg50
I00
sg51
I00
sg52
I00
sg53
I00
sg54
I0
sg55
I00
ssS'state54'
p361
(dp362
g45
I0
sg46
I0
sg47
I0
sg48
I0
sg49
I0
sg50
I00
sg51
I00
sg52
I00
sg53
I00
sg54
I0
sg55
I00
ssS'state59'
p363
(dp364
g45
I0
sg46
I0
sg47
I0
sg48
I0
sg49
I0
sg50
I00
sg51
I00
sg52
I00
sg53
I00
sg54
I0
sg55
I00
ssS'state63'
p365
(dp366
g45
I0
sg46
I0
sg47
I0
sg48
I0
sg49
I0
sg50
I00
sg51
I00
sg52
I00
sg53
I00
sg54
I0
sg55
I00
ssS'state55'
p367
(dp368
g45
I0
sg46
I0
sg47
I0
sg48
I0
sg49
I0
sg50
I00
sg51
I00
sg52
I00
sg53
I00
sg54
I0
sg55
I00
ssS'state35'
p369
(dp370
g45
I0
sg46
I0
sg47
I0
sg48
I0
sg49
I0
sg50
I00
sg51
I00
sg52
I00
sg53
I00
sg54
I0
sg55
I00
ssS'state34'
p371
(dp372
g45
I0
sg46
I0
sg47
I0
sg48
I0
sg49
I0
sg50
I00
sg51
I00
sg52
I00
sg53
I00
sg54
I0
sg55
I00
ssS'state37'
p373
(dp374
g45
I0
sg46
I0
sg47
I0
sg48
I0
sg49
I0
sg50
I00
sg51
I00
sg52
I00
sg53
I00
sg54
I0
sg55
I00
ssS'state36'
p375
(dp376
g45
I0
sg46
I0
sg47
I0
sg48
I0
sg49
I0
sg50
I00
sg51
I00
sg52
I00
sg53
I00
sg54
I0
sg55
I00
ssS'state31'
p377
(dp378
g45
I0
sg46
I0
sg47
I0
sg48
I0
sg49
I0
sg50
I00
sg51
I00
sg52
I00
sg53
I00
sg54
I0
sg55
I00
ssS'state30'
p379
(dp380
g45
I0
sg46
I0
sg47
I0
sg48
I0
sg49
I0
sg50
I00
sg51
I00
sg52
I00
sg53
I00
sg54
I0
sg55
I00
ssS'state33'
p381
(dp382
g45
I0
sg46
I0
sg47
I0
sg48
I0
sg49
I0
sg50
I00
sg51
I00
sg52
I00
sg53
I00
sg54
I0
sg55
I00
ssS'state32'
p383
(dp384
g45
I0
sg46
I0
sg47
I0
sg48
I0
sg49
I0
sg50
I00
sg51
I00
sg52
I00
sg53
I00
sg54
I0
sg55
I00
ssS'state39'
p385
(dp386
g45
I0
sg46
I0
sg47
I0
sg48
I0
sg49
I0
sg50
I00
sg51
I00
sg52
I00
sg53
I00
sg54
I0
sg55
I00
ssS'state38'
p387
(dp388
g45
I0
sg46
I0
sg47
I0
sg48
I0
sg49
I0
sg50
I00
sg51
I00
sg52
I00
sg53
I00
sg54
I0
sg55
I00
ssS'state57'
p389
(dp390
g45
I0
sg46
I0
sg47
I0
sg48
I0
sg49
I0
sg50
I00
sg51
I00
sg52
I00
sg53
I00
sg54
I0
sg55
I00
ssS'state56'
p391
(dp392
g45
I0
sg46
I0
sg47
I0
sg48
I0
sg49
I0
sg50
I00
sg51
I00
sg52
I00
sg53
I00
sg54
I0
sg55
I00
ssS'state19'
p393
(dp394
g45
I0
sg46
I0
sg47
I0
sg48
I0
sg49
I0
sg50
I00
sg51
I00
sg52
I00
sg53
I00
sg54
I0
sg55
I00
ssS'state18'
p395
(dp396
g45
I0
sg46
I0
sg47
I0
sg48
I0
sg49
I0
sg50
I00
sg51
I00
sg52
I00
sg53
I00
sg54
I0
sg55
I00
ssS'state53'
p397
(dp398
g45
I0
sg46
I0
sg47
I0
sg48
I0
sg49
I0
sg50
I00
sg51
I00
sg52
I00
sg53
I00
sg54
I0
sg55
I00
ssS'state52'
p399
(dp400
g45
I0
sg46
I0
sg47
I0
sg48
I0
sg49
I0
sg50
I00
sg51
I00
sg52
I00
sg53
I00
sg54
I0
sg55
I00
ssS'state51'
p401
(dp402
g45
I0
sg46
I0
sg47
I0
sg48
I0
sg49
I0
sg50
I00
sg51
I00
sg52
I00
sg53
I00
sg54
I0
sg55
I00
ssS'state50'
p403
(dp404
g45
I0
sg46
I0
sg47
I0
sg48
I0
sg49
I0
sg50
I00
sg51
I00
sg52
I00
sg53
I00
sg54
I0
sg55
I00
ssS'state13'
p405
(dp406
g45
I0
sg46
I0
sg47
I0
sg48
I0
sg49
I0
sg50
I00
sg51
I00
sg52
I00
sg53
I00
sg54
I0
sg55
I00
ssS'state12'
p407
(dp408
g45
I0
sg46
I0
sg47
I0
sg48
I0
sg49
I0
sg50
I00
sg51
I00
sg52
I00
sg53
I00
sg54
I0
sg55
I00
ssS'state11'
p409
(dp410
g45
I0
sg46
I0
sg47
I0
sg48
I0
sg49
I0
sg50
I00
sg51
I00
sg52
I00
sg53
I00
sg54
I0
sg55
I00
ssS'state10'
p411
(dp412
g45
I0
sg46
I0
sg47
I0
sg48
I0
sg49
I0
sg50
I00
sg51
I00
sg52
I00
sg53
I00
sg54
I0
sg55
I00
ssS'state17'
p413
(dp414
g45
I0
sg46
I0
sg47
I0
sg48
I0
sg49
I0
sg50
I00
sg51
I00
sg52
I00
sg53
I00
sg54
I0
sg55
I00
ssS'state16'
p415
(dp416
g45
I0
sg46
I0
sg47
I0
sg48
I0
sg49
I0
sg50
I00
sg51
I00
sg52
I00
sg53
I00
sg54
I0
sg55
I00
ssS'state15'
p417
(dp418
g45
I0
sg46
I0
sg47
I0
sg48
I0
sg49
I0
sg50
I00
sg51
I00
sg52
I00
sg53
I00
sg54
I0
sg55
I00
ssS'state14'
p419
(dp420
g45
I0
sg46
I0
sg47
I0
sg48
I0
sg49
I0
sg50
I00
sg51
I00
sg52
I00
sg53
I00
sg54
I0
sg55
I00
ssS'state3'
p421
(dp422
g45
I0
sg46
I0
sg47
I0
sg48
I0
sg49
I0
sg50
I00
sg51
I00
sg52
I00
sg53
I00
sg54
I0
sg55
I00
ssS'state2'
p423
(dp424
g45
I0
sg46
I0
sg47
I0
sg48
I0
sg49
I0
sg50
I00
sg51
I00
sg52
I00
sg53
I00
sg54
I0
sg55
I00
ssS'state1'
p425
(dp426
g45
I0
sg46
I0
sg47
I0
sg48
I0
sg49
I0
sg50
I00
sg51
I00
sg52
I00
sg53
I00
sg54
I0
sg55
I00
ssS'state0'
p427
(dp428
g45
I0
sg46
I0
sg47
I0
sg48
I0
sg49
I0
sg50
I00
sg51
I00
sg52
I00
sg53
I00
sg54
I0
sg55
I00
ssS'state7'
p429
(dp430
g45
I0
sg46
I0
sg47
I0
sg48
I0
sg49
I0
sg50
I00
sg51
I00
sg52
I00
sg53
I00
sg54
I0
sg55
I00
ssS'state6'
p431
(dp432
g45
I0
sg46
I0
sg47
I0
sg48
I0
sg49
I0
sg50
I00
sg51
I00
sg52
I00
sg53
I00
sg54
I0
sg55
I00
ssS'state5'
p433
(dp434
g45
I0
sg46
I0
sg47
I0
sg48
I0
sg49
I0
sg50
I00
sg51
I00
sg52
I00
sg53
I00
sg54
I0
sg55
I00
ssS'state4'
p435
(dp436
g45
I0
sg46
I0
sg47
I0
sg48
I0
sg49
I0
sg50
I00
sg51
I00
sg52
I00
sg53
I00
sg54
I0
sg55
I00
ssS'state9'
p437
(dp438
g45
I0
sg46
I0
sg47
I0
sg48
I0
sg49
I0
sg50
I00
sg51
I00
sg52
I00
sg53
I00
sg54
I0
sg55
I00
ssS'state8'
p439
(dp440
g45
I0
sg46
I0
sg47
I0
sg48
I0
sg49
I0
sg50
I00
sg51
I00
sg52
I00
sg53
I00
sg54
I0
sg55
I00
ssS'state62'
p441
(dp442
g45
I0
sg46
I0
sg47
I0
sg48
I0
sg49
I0
sg50
I00
sg51
I00
sg52
I00
sg53
I00
sg54
I0
sg55
I00
ssS'state22'
p443
(dp444
g45
I0
sg46
I0
sg47
I0
sg48
I0
sg49
I0
sg50
I00
sg51
I00
sg52
I00
sg53
I00
sg54
I0
sg55
I00
ssS'state23'
p445
(dp446
g45
I0
sg46
I0
sg47
I0
sg48
I0
sg49
I0
sg50
I00
sg51
I00
sg52
I00
sg53
I00
sg54
I0
sg55
I00
ssS'state20'
p447
(dp448
g45
I0
sg46
I0
sg47
I0
sg48
I0
sg49
I0
sg50
I00
sg51
I00
sg52
I00
sg53
I00
sg54
I0
sg55
I00
ssS'state21'
p449
(dp450
g45
I0
sg46
I0
sg47
I0
sg48
I0
sg49
I0
sg50
I00
sg51
I00
sg52
I00
sg53
I00
sg54
I0
sg55
I00
ssS'state26'
p451
(dp452
g45
I0
sg46
I0
sg47
I0
sg48
I0
sg49
I0
sg50
I00
sg51
I00
sg52
I00
sg53
I00
sg54
I0
sg55
I00
ssS'state27'
p453
(dp454
g45
I0
sg46
I0
sg47
I0
sg48
I0
sg49
I0
sg50
I00
sg51
I00
sg52
I00
sg53
I00
sg54
I0
sg55
I00
ssS'state24'
p455
(dp456
g45
I0
sg46
I0
sg47
I0
sg48
I0
sg49
I0
sg50
I00
sg51
I00
sg52
I00
sg53
I00
sg54
I0
sg55
I00
ssS'state25'
p457
(dp458
g45
I0
sg46
I0
sg47
I0
sg48
I0
sg49
I0
sg50
I00
sg51
I00
sg52
I00
sg53
I00
sg54
I0
sg55
I00
ssS'state28'
p459
(dp460
g45
I0
sg46
I0
sg47
I0
sg48
I0
sg49
I0
sg50
I00
sg51
I00
sg52
I00
sg53
I00
sg54
I0
sg55
I00
ssS'state29'
p461
(dp462
g45
I0
sg46
I0
sg47
I0
sg48
I0
sg49
I0
sg50
I00
sg51
I00
sg52
I00
sg53
I00
sg54
I0
sg55
I00
sssS'dfbMasterVector1'
p463
(dp464
g45
I0
sg46
I0
sg47
I0
sg48
I0
sg49
I0
sg50
I00
sg51
I00
sg52
I00
sg53
I00
sg54
I0
sg55
I00
ssS'CHglobals2'
p465
(dp466
g42
I01
ssS'CHglobals1'
p467
(dp468
g42
I01
ssS'dfbMasterVector2'
p469
(dp470
g45
I0
sg46
I0
sg47
I0
sg48
I0
sg49
I0
sg50
I00
sg51
I00
sg52
I00
sg53
I00
sg54
I0
sg55
I00
ssg56
(dp471
S'coeff3'
p472
S'0'
p473
sS'coeff2'
p474
S'0'
p475
sS'coeff1'
p476
S'2'
p477
sS'coeff0'
p478
S'2'
p479
sS'coeff5'
p480
S'0'
p481
sS'coeff4'
p482
S'0'
p483
sssS'classParameters2'
p484
(dp485
g36
(dp486
g38
I00
sg39
I00
ssS'badAllChannels'
p487
(dp488
S'channel11'
p489
(dp490
S'tri'
p491
I00
sS'd2a_hi'
p492
I0
sS'd2a_lo'
p493
I0
sS'dc'
p494
I00
sS'LoHi'
p495
I01
ssS'channel10'
p496
(dp497
g491
I00
sg492
I0
sg493
I0
sg494
I00
sg495
I01
ssS'channel15'
p498
(dp499
g491
I00
sg492
I0
sg493
I0
sg494
I00
sg495
I01
ssS'channel3'
p500
(dp501
g491
I00
sg492
I0
sg493
I0
sg494
I00
sg495
I01
ssS'channel2'
p502
(dp503
g491
I00
sg492
I0
sg493
I0
sg494
I00
sg495
I01
ssS'channel1'
p504
(dp505
g491
I00
sg492
I0
sg493
I0
sg494
I00
sg495
I01
ssS'channel0'
p506
(dp507
g491
I00
sg492
I0
sg493
I0
sg494
I00
sg495
I01
ssS'channel7'
p508
(dp509
g491
I00
sg492
I0
sg493
I0
sg494
I00
sg495
I01
ssS'channel6'
p510
(dp511
g491
I00
sg492
I0
sg493
I0
sg494
I00
sg495
I01
ssS'channel5'
p512
(dp513
g491
I00
sg492
I0
sg493
I0
sg494
I00
sg495
I01
ssS'channel4'
p514
(dp515
g491
I00
sg492
I0
sg493
I0
sg494
I00
sg495
I01
ssS'channel13'
p516
(dp517
g491
I00
sg492
I0
sg493
I0
sg494
I00
sg495
I01
ssS'channel9'
p518
(dp519
g491
I00
sg492
I0
sg493
I0
sg494
I00
sg495
I01
ssS'channel8'
p520
(dp521
g491
I00
sg492
I0
sg493
I0
sg494
I00
sg495
I01
ssS'channel14'
p522
(dp523
g491
I00
sg492
I0
sg493
I0
sg494
I00
sg495
I01
ssS'channel12'
p524
(dp525
g491
I00
sg492
I0
sg493
I0
sg494
I00
sg495
I01
sssg56
(dp526
S'coeff2'
p527
S'0'
p528
sS'coeff1'
p529
S'-1'
p530
sS'coeff0'
p531
S'-1'
p532
ssS'bad16MasterVector'
p533
(dp534
g491
I00
sg492
I0
sg493
I0
sg494
I00
sg495
I01
ssss.